
timer-test-x86:     file format elf32-i386


Disassembly of section .text:

03001000 <main>:
 3001000:	8d 4c 24 04          	lea    0x4(%esp),%ecx
 3001004:	83 e4 f0             	and    $0xfffffff0,%esp
 3001007:	ff 71 fc             	pushl  -0x4(%ecx)
 300100a:	55                   	push   %ebp
 300100b:	89 e5                	mov    %esp,%ebp
 300100d:	56                   	push   %esi
 300100e:	53                   	push   %ebx
 300100f:	51                   	push   %ecx
 3001010:	83 ec 24             	sub    $0x24,%esp
 3001013:	c7 45 e0 00 00 00 00 	movl   $0x0,-0x20(%ebp)
 300101a:	6a 00                	push   $0x0
 300101c:	68 00 60 00 03       	push   $0x3006000
 3001021:	e8 8e 00 00 00       	call   30010b4 <printf>
 3001026:	83 c4 10             	add    $0x10,%esp
 3001029:	bb 01 00 00 00       	mov    $0x1,%ebx
 300102e:	8d 75 e0             	lea    -0x20(%ebp),%esi
 3001031:	8d 76 00             	lea    0x0(%esi),%esi
 3001034:	39 5d e0             	cmp    %ebx,-0x20(%ebp)
 3001037:	7d 2b                	jge    3001064 <main+0x64>
 3001039:	83 ec 08             	sub    $0x8,%esp
 300103c:	6a 00                	push   $0x0
 300103e:	56                   	push   %esi
 300103f:	e8 34 00 00 00       	call   3001078 <gettimeofday>
 3001044:	83 c4 10             	add    $0x10,%esp
 3001047:	85 c0                	test   %eax,%eax
 3001049:	74 e9                	je     3001034 <main+0x34>
 300104b:	68 1d 60 00 03       	push   $0x300601d
 3001050:	68 7c 60 00 03       	push   $0x300607c
 3001055:	6a 0f                	push   $0xf
 3001057:	68 38 60 00 03       	push   $0x3006038
 300105c:	e8 73 00 00 00       	call   30010d4 <__assert_func>
 3001061:	8d 76 00             	lea    0x0(%esi),%esi
 3001064:	83 ec 08             	sub    $0x8,%esp
 3001067:	53                   	push   %ebx
 3001068:	68 22 60 00 03       	push   $0x3006022
 300106d:	e8 42 00 00 00       	call   30010b4 <printf>
 3001072:	43                   	inc    %ebx
 3001073:	83 c4 10             	add    $0x10,%esp
 3001076:	eb bc                	jmp    3001034 <main+0x34>

03001078 <gettimeofday>:
 3001078:	83 ec 0c             	sub    $0xc,%esp
 300107b:	e8 ec 00 00 00       	call   300116c <__getreent>
 3001080:	52                   	push   %edx
 3001081:	ff 74 24 18          	pushl  0x18(%esp)
 3001085:	ff 74 24 18          	pushl  0x18(%esp)
 3001089:	50                   	push   %eax
 300108a:	e8 a1 00 00 00       	call   3001130 <_gettimeofday_r>
 300108f:	83 c4 1c             	add    $0x1c,%esp
 3001092:	c3                   	ret    
 3001093:	90                   	nop

03001094 <_printf_r>:
 3001094:	83 ec 0c             	sub    $0xc,%esp
 3001097:	8b 44 24 10          	mov    0x10(%esp),%eax
 300109b:	8d 54 24 18          	lea    0x18(%esp),%edx
 300109f:	52                   	push   %edx
 30010a0:	ff 74 24 18          	pushl  0x18(%esp)
 30010a4:	ff 70 08             	pushl  0x8(%eax)
 30010a7:	50                   	push   %eax
 30010a8:	e8 cb 01 00 00       	call   3001278 <_vfprintf_r>
 30010ad:	83 c4 1c             	add    $0x1c,%esp
 30010b0:	c3                   	ret    
 30010b1:	8d 76 00             	lea    0x0(%esi),%esi

030010b4 <printf>:
 30010b4:	83 ec 0c             	sub    $0xc,%esp
 30010b7:	e8 b0 00 00 00       	call   300116c <__getreent>
 30010bc:	8d 54 24 14          	lea    0x14(%esp),%edx
 30010c0:	52                   	push   %edx
 30010c1:	ff 74 24 14          	pushl  0x14(%esp)
 30010c5:	ff 70 08             	pushl  0x8(%eax)
 30010c8:	50                   	push   %eax
 30010c9:	e8 aa 01 00 00       	call   3001278 <_vfprintf_r>
 30010ce:	83 c4 1c             	add    $0x1c,%esp
 30010d1:	c3                   	ret    
 30010d2:	66 90                	xchg   %ax,%ax

030010d4 <__assert_func>:
 30010d4:	56                   	push   %esi
 30010d5:	53                   	push   %ebx
 30010d6:	51                   	push   %ecx
 30010d7:	8b 5c 24 18          	mov    0x18(%esp),%ebx
 30010db:	85 db                	test   %ebx,%ebx
 30010dd:	74 2e                	je     300110d <__assert_func+0x39>
 30010df:	be 81 60 00 03       	mov    $0x3006081,%esi
 30010e4:	e8 83 00 00 00       	call   300116c <__getreent>
 30010e9:	52                   	push   %edx
 30010ea:	53                   	push   %ebx
 30010eb:	56                   	push   %esi
 30010ec:	ff 74 24 20          	pushl  0x20(%esp)
 30010f0:	ff 74 24 20          	pushl  0x20(%esp)
 30010f4:	ff 74 24 30          	pushl  0x30(%esp)
 30010f8:	68 90 60 00 03       	push   $0x3006090
 30010fd:	ff 70 0c             	pushl  0xc(%eax)
 3001100:	e8 9b 0c 00 00       	call   3001da0 <fiprintf>
 3001105:	83 c4 20             	add    $0x20,%esp
 3001108:	e8 27 23 00 00       	call   3003434 <abort>
 300110d:	bb 1c 60 00 03       	mov    $0x300601c,%ebx
 3001112:	89 de                	mov    %ebx,%esi
 3001114:	eb ce                	jmp    30010e4 <__assert_func+0x10>
 3001116:	66 90                	xchg   %ax,%ax

03001118 <__assert>:
 3001118:	83 ec 0c             	sub    $0xc,%esp
 300111b:	ff 74 24 18          	pushl  0x18(%esp)
 300111f:	6a 00                	push   $0x0
 3001121:	ff 74 24 1c          	pushl  0x1c(%esp)
 3001125:	ff 74 24 1c          	pushl  0x1c(%esp)
 3001129:	e8 a6 ff ff ff       	call   30010d4 <__assert_func>
 300112e:	66 90                	xchg   %ax,%ax

03001130 <_gettimeofday_r>:
 3001130:	83 ec 14             	sub    $0x14,%esp
 3001133:	c7 05 78 7d 00 03 00 	movl   $0x0,0x3007d78
 300113a:	00 00 00 
 300113d:	ff 74 24 20          	pushl  0x20(%esp)
 3001141:	ff 74 24 20          	pushl  0x20(%esp)
 3001145:	e8 d2 43 00 00       	call   300551c <_gettimeofday>
 300114a:	83 c4 10             	add    $0x10,%esp
 300114d:	83 f8 ff             	cmp    $0xffffffff,%eax
 3001150:	74 06                	je     3001158 <_gettimeofday_r+0x28>
 3001152:	83 c4 0c             	add    $0xc,%esp
 3001155:	c3                   	ret    
 3001156:	66 90                	xchg   %ax,%ax
 3001158:	8b 15 78 7d 00 03    	mov    0x3007d78,%edx
 300115e:	85 d2                	test   %edx,%edx
 3001160:	74 f0                	je     3001152 <_gettimeofday_r+0x22>
 3001162:	8b 4c 24 10          	mov    0x10(%esp),%ecx
 3001166:	89 11                	mov    %edx,(%ecx)
 3001168:	83 c4 0c             	add    $0xc,%esp
 300116b:	c3                   	ret    

0300116c <__getreent>:
 300116c:	a1 e0 78 00 03       	mov    0x30078e0,%eax
 3001171:	c3                   	ret    
 3001172:	66 90                	xchg   %ax,%ax

03001174 <cleanup_glue>:
 3001174:	56                   	push   %esi
 3001175:	53                   	push   %ebx
 3001176:	52                   	push   %edx
 3001177:	8b 74 24 10          	mov    0x10(%esp),%esi
 300117b:	8b 5c 24 14          	mov    0x14(%esp),%ebx
 300117f:	8b 03                	mov    (%ebx),%eax
 3001181:	85 c0                	test   %eax,%eax
 3001183:	74 0d                	je     3001192 <cleanup_glue+0x1e>
 3001185:	83 ec 08             	sub    $0x8,%esp
 3001188:	50                   	push   %eax
 3001189:	56                   	push   %esi
 300118a:	e8 e5 ff ff ff       	call   3001174 <cleanup_glue>
 300118f:	83 c4 10             	add    $0x10,%esp
 3001192:	89 5c 24 14          	mov    %ebx,0x14(%esp)
 3001196:	89 74 24 10          	mov    %esi,0x10(%esp)
 300119a:	58                   	pop    %eax
 300119b:	5b                   	pop    %ebx
 300119c:	5e                   	pop    %esi
 300119d:	e9 b6 1f 00 00       	jmp    3003158 <_free_r>
 30011a2:	66 90                	xchg   %ax,%ax

030011a4 <_reclaim_reent>:
 30011a4:	57                   	push   %edi
 30011a5:	56                   	push   %esi
 30011a6:	53                   	push   %ebx
 30011a7:	8b 74 24 10          	mov    0x10(%esp),%esi
 30011ab:	39 35 e0 78 00 03    	cmp    %esi,0x30078e0
 30011b1:	0f 84 ba 00 00 00    	je     3001271 <_reclaim_reent+0xcd>
 30011b7:	8b 46 4c             	mov    0x4c(%esi),%eax
 30011ba:	85 c0                	test   %eax,%eax
 30011bc:	74 3a                	je     30011f8 <_reclaim_reent+0x54>
 30011be:	31 ff                	xor    %edi,%edi
 30011c0:	8b 1c 38             	mov    (%eax,%edi,1),%ebx
 30011c3:	85 db                	test   %ebx,%ebx
 30011c5:	74 19                	je     30011e0 <_reclaim_reent+0x3c>
 30011c7:	90                   	nop
 30011c8:	89 d8                	mov    %ebx,%eax
 30011ca:	8b 1b                	mov    (%ebx),%ebx
 30011cc:	83 ec 08             	sub    $0x8,%esp
 30011cf:	50                   	push   %eax
 30011d0:	56                   	push   %esi
 30011d1:	e8 82 1f 00 00       	call   3003158 <_free_r>
 30011d6:	83 c4 10             	add    $0x10,%esp
 30011d9:	85 db                	test   %ebx,%ebx
 30011db:	75 eb                	jne    30011c8 <_reclaim_reent+0x24>
 30011dd:	8b 46 4c             	mov    0x4c(%esi),%eax
 30011e0:	83 c7 04             	add    $0x4,%edi
 30011e3:	81 ff 80 00 00 00    	cmp    $0x80,%edi
 30011e9:	75 d5                	jne    30011c0 <_reclaim_reent+0x1c>
 30011eb:	83 ec 08             	sub    $0x8,%esp
 30011ee:	50                   	push   %eax
 30011ef:	56                   	push   %esi
 30011f0:	e8 63 1f 00 00       	call   3003158 <_free_r>
 30011f5:	83 c4 10             	add    $0x10,%esp
 30011f8:	8b 46 40             	mov    0x40(%esi),%eax
 30011fb:	85 c0                	test   %eax,%eax
 30011fd:	74 0d                	je     300120c <_reclaim_reent+0x68>
 30011ff:	83 ec 08             	sub    $0x8,%esp
 3001202:	50                   	push   %eax
 3001203:	56                   	push   %esi
 3001204:	e8 4f 1f 00 00       	call   3003158 <_free_r>
 3001209:	83 c4 10             	add    $0x10,%esp
 300120c:	8b 9e 48 01 00 00    	mov    0x148(%esi),%ebx
 3001212:	85 db                	test   %ebx,%ebx
 3001214:	74 1f                	je     3001235 <_reclaim_reent+0x91>
 3001216:	8d be 4c 01 00 00    	lea    0x14c(%esi),%edi
 300121c:	39 fb                	cmp    %edi,%ebx
 300121e:	74 15                	je     3001235 <_reclaim_reent+0x91>
 3001220:	89 d8                	mov    %ebx,%eax
 3001222:	8b 1b                	mov    (%ebx),%ebx
 3001224:	83 ec 08             	sub    $0x8,%esp
 3001227:	50                   	push   %eax
 3001228:	56                   	push   %esi
 3001229:	e8 2a 1f 00 00       	call   3003158 <_free_r>
 300122e:	83 c4 10             	add    $0x10,%esp
 3001231:	39 df                	cmp    %ebx,%edi
 3001233:	75 eb                	jne    3001220 <_reclaim_reent+0x7c>
 3001235:	8b 46 54             	mov    0x54(%esi),%eax
 3001238:	85 c0                	test   %eax,%eax
 300123a:	74 0d                	je     3001249 <_reclaim_reent+0xa5>
 300123c:	83 ec 08             	sub    $0x8,%esp
 300123f:	50                   	push   %eax
 3001240:	56                   	push   %esi
 3001241:	e8 12 1f 00 00       	call   3003158 <_free_r>
 3001246:	83 c4 10             	add    $0x10,%esp
 3001249:	8b 46 38             	mov    0x38(%esi),%eax
 300124c:	85 c0                	test   %eax,%eax
 300124e:	74 21                	je     3001271 <_reclaim_reent+0xcd>
 3001250:	83 ec 0c             	sub    $0xc,%esp
 3001253:	56                   	push   %esi
 3001254:	ff 56 3c             	call   *0x3c(%esi)
 3001257:	8b 86 e0 02 00 00    	mov    0x2e0(%esi),%eax
 300125d:	83 c4 10             	add    $0x10,%esp
 3001260:	85 c0                	test   %eax,%eax
 3001262:	74 0d                	je     3001271 <_reclaim_reent+0xcd>
 3001264:	83 ec 08             	sub    $0x8,%esp
 3001267:	50                   	push   %eax
 3001268:	56                   	push   %esi
 3001269:	e8 06 ff ff ff       	call   3001174 <cleanup_glue>
 300126e:	83 c4 10             	add    $0x10,%esp
 3001271:	5b                   	pop    %ebx
 3001272:	5e                   	pop    %esi
 3001273:	5f                   	pop    %edi
 3001274:	c3                   	ret    
 3001275:	66 90                	xchg   %ax,%ax
 3001277:	90                   	nop

03001278 <_vfprintf_r>:
 3001278:	55                   	push   %ebp
 3001279:	57                   	push   %edi
 300127a:	56                   	push   %esi
 300127b:	53                   	push   %ebx
 300127c:	83 ec 6c             	sub    $0x6c,%esp
 300127f:	8b bc 24 84 00 00 00 	mov    0x84(%esp),%edi
 3001286:	8b b4 24 80 00 00 00 	mov    0x80(%esp),%esi
 300128d:	85 f6                	test   %esi,%esi
 300128f:	74 12                	je     30012a3 <_vfprintf_r+0x2b>
 3001291:	8b 84 24 80 00 00 00 	mov    0x80(%esp),%eax
 3001298:	8b 58 38             	mov    0x38(%eax),%ebx
 300129b:	85 db                	test   %ebx,%ebx
 300129d:	0f 84 0d 02 00 00    	je     30014b0 <_vfprintf_r+0x238>
 30012a3:	f6 47 0c 08          	testb  $0x8,0xc(%edi)
 30012a7:	0f 84 ab 01 00 00    	je     3001458 <_vfprintf_r+0x1e0>
 30012ad:	8b 4f 10             	mov    0x10(%edi),%ecx
 30012b0:	85 c9                	test   %ecx,%ecx
 30012b2:	0f 84 a0 01 00 00    	je     3001458 <_vfprintf_r+0x1e0>
 30012b8:	c7 44 24 24 00 00 00 	movl   $0x0,0x24(%esp)
 30012bf:	00 
 30012c0:	c7 44 24 18 00 00 00 	movl   $0x0,0x18(%esp)
 30012c7:	00 
 30012c8:	8b 84 24 88 00 00 00 	mov    0x88(%esp),%eax
 30012cf:	8a 00                	mov    (%eax),%al
 30012d1:	84 c0                	test   %al,%al
 30012d3:	0f 84 6b 01 00 00    	je     3001444 <_vfprintf_r+0x1cc>
 30012d9:	8b 9c 24 88 00 00 00 	mov    0x88(%esp),%ebx
 30012e0:	eb 0d                	jmp    30012ef <_vfprintf_r+0x77>
 30012e2:	66 90                	xchg   %ax,%ax
 30012e4:	43                   	inc    %ebx
 30012e5:	8a 03                	mov    (%ebx),%al
 30012e7:	84 c0                	test   %al,%al
 30012e9:	0f 84 91 01 00 00    	je     3001480 <_vfprintf_r+0x208>
 30012ef:	3c 25                	cmp    $0x25,%al
 30012f1:	75 f1                	jne    30012e4 <_vfprintf_r+0x6c>
 30012f3:	89 de                	mov    %ebx,%esi
 30012f5:	2b b4 24 88 00 00 00 	sub    0x88(%esp),%esi
 30012fc:	0f 85 89 01 00 00    	jne    300148b <_vfprintf_r+0x213>
 3001302:	8a 03                	mov    (%ebx),%al
 3001304:	84 c0                	test   %al,%al
 3001306:	0f 84 38 01 00 00    	je     3001444 <_vfprintf_r+0x1cc>
 300130c:	8d 43 01             	lea    0x1(%ebx),%eax
 300130f:	c6 44 24 35 00       	movb   $0x0,0x35(%esp)
 3001314:	31 ed                	xor    %ebp,%ebp
 3001316:	31 db                	xor    %ebx,%ebx
 3001318:	be ff ff ff ff       	mov    $0xffffffff,%esi
 300131d:	c7 44 24 14 00 00 00 	movl   $0x0,0x14(%esp)
 3001324:	00 
 3001325:	31 c9                	xor    %ecx,%ecx
 3001327:	8d 50 01             	lea    0x1(%eax),%edx
 300132a:	89 94 24 88 00 00 00 	mov    %edx,0x88(%esp)
 3001331:	0f be 00             	movsbl (%eax),%eax
 3001334:	8d 50 e0             	lea    -0x20(%eax),%edx
 3001337:	83 fa 58             	cmp    $0x58,%edx
 300133a:	77 4c                	ja     3001388 <_vfprintf_r+0x110>
 300133c:	ff 24 95 e8 60 00 03 	jmp    *0x30060e8(,%edx,4)
 3001343:	90                   	nop
 3001344:	8d 50 d0             	lea    -0x30(%eax),%edx
 3001347:	89 4c 24 0c          	mov    %ecx,0xc(%esp)
 300134b:	31 c9                	xor    %ecx,%ecx
 300134d:	89 74 24 10          	mov    %esi,0x10(%esp)
 3001351:	8b b4 24 88 00 00 00 	mov    0x88(%esp),%esi
 3001358:	8d 0c 89             	lea    (%ecx,%ecx,4),%ecx
 300135b:	01 c9                	add    %ecx,%ecx
 300135d:	01 d1                	add    %edx,%ecx
 300135f:	46                   	inc    %esi
 3001360:	0f be 46 ff          	movsbl -0x1(%esi),%eax
 3001364:	8d 50 d0             	lea    -0x30(%eax),%edx
 3001367:	83 fa 09             	cmp    $0x9,%edx
 300136a:	76 ec                	jbe    3001358 <_vfprintf_r+0xe0>
 300136c:	89 4c 24 14          	mov    %ecx,0x14(%esp)
 3001370:	8b 4c 24 0c          	mov    0xc(%esp),%ecx
 3001374:	89 b4 24 88 00 00 00 	mov    %esi,0x88(%esp)
 300137b:	8b 74 24 10          	mov    0x10(%esp),%esi
 300137f:	8d 50 e0             	lea    -0x20(%eax),%edx
 3001382:	83 fa 58             	cmp    $0x58,%edx
 3001385:	76 b5                	jbe    300133c <_vfprintf_r+0xc4>
 3001387:	90                   	nop
 3001388:	85 c0                	test   %eax,%eax
 300138a:	0f 84 b4 00 00 00    	je     3001444 <_vfprintf_r+0x1cc>
 3001390:	88 44 24 38          	mov    %al,0x38(%esp)
 3001394:	c6 44 24 35 00       	movb   $0x0,0x35(%esp)
 3001399:	bd 01 00 00 00       	mov    $0x1,%ebp
 300139e:	c7 44 24 10 01 00 00 	movl   $0x1,0x10(%esp)
 30013a5:	00 
 30013a6:	8d 5c 24 38          	lea    0x38(%esp),%ebx
 30013aa:	89 4c 24 0c          	mov    %ecx,0xc(%esp)
 30013ae:	31 f6                	xor    %esi,%esi
 30013b0:	8b 44 24 0c          	mov    0xc(%esp),%eax
 30013b4:	83 e0 02             	and    $0x2,%eax
 30013b7:	89 44 24 1c          	mov    %eax,0x1c(%esp)
 30013bb:	74 03                	je     30013c0 <_vfprintf_r+0x148>
 30013bd:	83 c5 02             	add    $0x2,%ebp
 30013c0:	8b 44 24 0c          	mov    0xc(%esp),%eax
 30013c4:	25 84 00 00 00       	and    $0x84,%eax
 30013c9:	89 44 24 20          	mov    %eax,0x20(%esp)
 30013cd:	75 0e                	jne    30013dd <_vfprintf_r+0x165>
 30013cf:	8b 54 24 14          	mov    0x14(%esp),%edx
 30013d3:	29 ea                	sub    %ebp,%edx
 30013d5:	85 d2                	test   %edx,%edx
 30013d7:	0f 8f f7 06 00 00    	jg     3001ad4 <_vfprintf_r+0x85c>
 30013dd:	80 7c 24 35 00       	cmpb   $0x0,0x35(%esp)
 30013e2:	0f 85 68 06 00 00    	jne    3001a50 <_vfprintf_r+0x7d8>
 30013e8:	8b 44 24 1c          	mov    0x1c(%esp),%eax
 30013ec:	85 c0                	test   %eax,%eax
 30013ee:	0f 85 86 06 00 00    	jne    3001a7a <_vfprintf_r+0x802>
 30013f4:	81 7c 24 20 80 00 00 	cmpl   $0x80,0x20(%esp)
 30013fb:	00 
 30013fc:	0f 84 fa 05 00 00    	je     30019fc <_vfprintf_r+0x784>
 3001402:	2b 74 24 10          	sub    0x10(%esp),%esi
 3001406:	85 f6                	test   %esi,%esi
 3001408:	0f 8e 67 05 00 00    	jle    3001975 <_vfprintf_r+0x6fd>
 300140e:	83 fe 10             	cmp    $0x10,%esi
 3001411:	0f 8e 41 05 00 00    	jle    3001958 <_vfprintf_r+0x6e0>
 3001417:	89 5c 24 1c          	mov    %ebx,0x1c(%esp)
 300141b:	8b 9c 24 80 00 00 00 	mov    0x80(%esp),%ebx
 3001422:	eb 0c                	jmp    3001430 <_vfprintf_r+0x1b8>
 3001424:	83 ee 10             	sub    $0x10,%esi
 3001427:	83 fe 10             	cmp    $0x10,%esi
 300142a:	0f 8e 24 05 00 00    	jle    3001954 <_vfprintf_r+0x6dc>
 3001430:	6a 10                	push   $0x10
 3001432:	68 4c 62 00 03       	push   $0x300624c
 3001437:	57                   	push   %edi
 3001438:	53                   	push   %ebx
 3001439:	e8 ca 0c 00 00       	call   3002108 <__sfputs_r>
 300143e:	83 c4 10             	add    $0x10,%esp
 3001441:	40                   	inc    %eax
 3001442:	75 e0                	jne    3001424 <_vfprintf_r+0x1ac>
 3001444:	f6 47 0c 40          	testb  $0x40,0xc(%edi)
 3001448:	75 29                	jne    3001473 <_vfprintf_r+0x1fb>
 300144a:	8b 44 24 18          	mov    0x18(%esp),%eax
 300144e:	83 c4 6c             	add    $0x6c,%esp
 3001451:	5b                   	pop    %ebx
 3001452:	5e                   	pop    %esi
 3001453:	5f                   	pop    %edi
 3001454:	5d                   	pop    %ebp
 3001455:	c3                   	ret    
 3001456:	66 90                	xchg   %ax,%ax
 3001458:	83 ec 08             	sub    $0x8,%esp
 300145b:	57                   	push   %edi
 300145c:	ff b4 24 8c 00 00 00 	pushl  0x8c(%esp)
 3001463:	e8 ec 19 00 00       	call   3002e54 <__swsetup_r>
 3001468:	83 c4 10             	add    $0x10,%esp
 300146b:	85 c0                	test   %eax,%eax
 300146d:	0f 84 45 fe ff ff    	je     30012b8 <_vfprintf_r+0x40>
 3001473:	c7 44 24 18 ff ff ff 	movl   $0xffffffff,0x18(%esp)
 300147a:	ff 
 300147b:	eb cd                	jmp    300144a <_vfprintf_r+0x1d2>
 300147d:	8d 76 00             	lea    0x0(%esi),%esi
 3001480:	89 de                	mov    %ebx,%esi
 3001482:	2b b4 24 88 00 00 00 	sub    0x88(%esp),%esi
 3001489:	74 b9                	je     3001444 <_vfprintf_r+0x1cc>
 300148b:	56                   	push   %esi
 300148c:	ff b4 24 8c 00 00 00 	pushl  0x8c(%esp)
 3001493:	57                   	push   %edi
 3001494:	ff b4 24 8c 00 00 00 	pushl  0x8c(%esp)
 300149b:	e8 68 0c 00 00       	call   3002108 <__sfputs_r>
 30014a0:	83 c4 10             	add    $0x10,%esp
 30014a3:	40                   	inc    %eax
 30014a4:	74 9e                	je     3001444 <_vfprintf_r+0x1cc>
 30014a6:	01 74 24 18          	add    %esi,0x18(%esp)
 30014aa:	e9 53 fe ff ff       	jmp    3001302 <_vfprintf_r+0x8a>
 30014af:	90                   	nop
 30014b0:	83 ec 0c             	sub    $0xc,%esp
 30014b3:	ff b4 24 8c 00 00 00 	pushl  0x8c(%esp)
 30014ba:	e8 ed 0b 00 00       	call   30020ac <__sinit>
 30014bf:	83 c4 10             	add    $0x10,%esp
 30014c2:	e9 dc fd ff ff       	jmp    30012a3 <_vfprintf_r+0x2b>
 30014c7:	83 c9 10             	or     $0x10,%ecx
 30014ca:	8b 84 24 88 00 00 00 	mov    0x88(%esp),%eax
 30014d1:	e9 51 fe ff ff       	jmp    3001327 <_vfprintf_r+0xaf>
 30014d6:	f7 da                	neg    %edx
 30014d8:	89 54 24 14          	mov    %edx,0x14(%esp)
 30014dc:	89 84 24 8c 00 00 00 	mov    %eax,0x8c(%esp)
 30014e3:	83 c9 04             	or     $0x4,%ecx
 30014e6:	eb e2                	jmp    30014ca <_vfprintf_r+0x252>
 30014e8:	89 e8                	mov    %ebp,%eax
 30014ea:	84 c0                	test   %al,%al
 30014ec:	0f 85 2c 08 00 00    	jne    3001d1e <_vfprintf_r+0xaa6>
 30014f2:	8b 84 24 8c 00 00 00 	mov    0x8c(%esp),%eax
 30014f9:	8d 50 04             	lea    0x4(%eax),%edx
 30014fc:	f6 c1 10             	test   $0x10,%cl
 30014ff:	0f 85 a7 02 00 00    	jne    30017ac <_vfprintf_r+0x534>
 3001505:	8b 84 24 8c 00 00 00 	mov    0x8c(%esp),%eax
 300150c:	f6 c1 40             	test   $0x40,%cl
 300150f:	0f 84 16 07 00 00    	je     3001c2b <_vfprintf_r+0x9b3>
 3001515:	0f bf 28             	movswl (%eax),%ebp
 3001518:	89 e8                	mov    %ebp,%eax
 300151a:	89 94 24 8c 00 00 00 	mov    %edx,0x8c(%esp)
 3001521:	85 c0                	test   %eax,%eax
 3001523:	0f 88 9d 02 00 00    	js     30017c6 <_vfprintf_r+0x54e>
 3001529:	8a 44 24 35          	mov    0x35(%esp),%al
 300152d:	88 44 24 1c          	mov    %al,0x1c(%esp)
 3001531:	83 fe ff             	cmp    $0xffffffff,%esi
 3001534:	0f 84 73 05 00 00    	je     3001aad <_vfprintf_r+0x835>
 300153a:	80 e1 7f             	and    $0x7f,%cl
 300153d:	85 ed                	test   %ebp,%ebp
 300153f:	0f 85 68 05 00 00    	jne    3001aad <_vfprintf_r+0x835>
 3001545:	85 f6                	test   %esi,%esi
 3001547:	0f 85 69 05 00 00    	jne    3001ab6 <_vfprintf_r+0x83e>
 300154d:	c7 44 24 10 00 00 00 	movl   $0x0,0x10(%esp)
 3001554:	00 
 3001555:	89 4c 24 0c          	mov    %ecx,0xc(%esp)
 3001559:	8d 5c 24 60          	lea    0x60(%esp),%ebx
 300155d:	8d 76 00             	lea    0x0(%esi),%esi
 3001560:	89 f5                	mov    %esi,%ebp
 3001562:	8b 44 24 10          	mov    0x10(%esp),%eax
 3001566:	39 c6                	cmp    %eax,%esi
 3001568:	7d 02                	jge    300156c <_vfprintf_r+0x2f4>
 300156a:	89 c5                	mov    %eax,%ebp
 300156c:	80 7c 24 1c 01       	cmpb   $0x1,0x1c(%esp)
 3001571:	83 dd ff             	sbb    $0xffffffff,%ebp
 3001574:	e9 37 fe ff ff       	jmp    30013b0 <_vfprintf_r+0x138>
 3001579:	83 c9 10             	or     $0x10,%ecx
 300157c:	8b 84 24 8c 00 00 00 	mov    0x8c(%esp),%eax
 3001583:	83 c0 04             	add    $0x4,%eax
 3001586:	8b 94 24 8c 00 00 00 	mov    0x8c(%esp),%edx
 300158d:	8b 2a                	mov    (%edx),%ebp
 300158f:	89 84 24 8c 00 00 00 	mov    %eax,0x8c(%esp)
 3001596:	31 c0                	xor    %eax,%eax
 3001598:	c6 44 24 35 00       	movb   $0x0,0x35(%esp)
 300159d:	c6 44 24 1c 00       	movb   $0x0,0x1c(%esp)
 30015a2:	83 fe ff             	cmp    $0xffffffff,%esi
 30015a5:	0f 84 35 02 00 00    	je     30017e0 <_vfprintf_r+0x568>
 30015ab:	89 ca                	mov    %ecx,%edx
 30015ad:	80 e2 7f             	and    $0x7f,%dl
 30015b0:	89 54 24 0c          	mov    %edx,0xc(%esp)
 30015b4:	85 ed                	test   %ebp,%ebp
 30015b6:	0f 85 e4 04 00 00    	jne    3001aa0 <_vfprintf_r+0x828>
 30015bc:	85 f6                	test   %esi,%esi
 30015be:	0f 85 9a 06 00 00    	jne    3001c5e <_vfprintf_r+0x9e6>
 30015c4:	85 c0                	test   %eax,%eax
 30015c6:	0f 85 c4 05 00 00    	jne    3001b90 <_vfprintf_r+0x918>
 30015cc:	83 e1 01             	and    $0x1,%ecx
 30015cf:	89 4c 24 10          	mov    %ecx,0x10(%esp)
 30015d3:	74 84                	je     3001559 <_vfprintf_r+0x2e1>
 30015d5:	c6 44 24 5f 30       	movb   $0x30,0x5f(%esp)
 30015da:	8d 5c 24 5f          	lea    0x5f(%esp),%ebx
 30015de:	eb 80                	jmp    3001560 <_vfprintf_r+0x2e8>
 30015e0:	83 c9 10             	or     $0x10,%ecx
 30015e3:	8b 84 24 8c 00 00 00 	mov    0x8c(%esp),%eax
 30015ea:	83 c0 04             	add    $0x4,%eax
 30015ed:	8b 94 24 8c 00 00 00 	mov    0x8c(%esp),%edx
 30015f4:	8b 2a                	mov    (%edx),%ebp
 30015f6:	89 84 24 8c 00 00 00 	mov    %eax,0x8c(%esp)
 30015fd:	b8 01 00 00 00       	mov    $0x1,%eax
 3001602:	eb 94                	jmp    3001598 <_vfprintf_r+0x320>
 3001604:	89 ea                	mov    %ebp,%edx
 3001606:	84 d2                	test   %dl,%dl
 3001608:	0f 85 07 07 00 00    	jne    3001d15 <_vfprintf_r+0xa9d>
 300160e:	c7 44 24 24 bf 60 00 	movl   $0x30060bf,0x24(%esp)
 3001615:	03 
 3001616:	8b 94 24 8c 00 00 00 	mov    0x8c(%esp),%edx
 300161d:	83 c2 04             	add    $0x4,%edx
 3001620:	8b 9c 24 8c 00 00 00 	mov    0x8c(%esp),%ebx
 3001627:	f6 c1 10             	test   $0x10,%cl
 300162a:	0f 85 f8 04 00 00    	jne    3001b28 <_vfprintf_r+0x8b0>
 3001630:	f6 c1 40             	test   $0x40,%cl
 3001633:	0f 84 ef 04 00 00    	je     3001b28 <_vfprintf_r+0x8b0>
 3001639:	0f b7 2b             	movzwl (%ebx),%ebp
 300163c:	f6 c1 01             	test   $0x1,%cl
 300163f:	0f 84 cf 04 00 00    	je     3001b14 <_vfprintf_r+0x89c>
 3001645:	85 ed                	test   %ebp,%ebp
 3001647:	0f 84 c7 04 00 00    	je     3001b14 <_vfprintf_r+0x89c>
 300164d:	c6 44 24 36 30       	movb   $0x30,0x36(%esp)
 3001652:	88 44 24 37          	mov    %al,0x37(%esp)
 3001656:	83 c9 02             	or     $0x2,%ecx
 3001659:	89 94 24 8c 00 00 00 	mov    %edx,0x8c(%esp)
 3001660:	b8 02 00 00 00       	mov    $0x2,%eax
 3001665:	e9 2e ff ff ff       	jmp    3001598 <_vfprintf_r+0x320>
 300166a:	8b 84 24 8c 00 00 00 	mov    0x8c(%esp),%eax
 3001671:	8b 28                	mov    (%eax),%ebp
 3001673:	83 c9 02             	or     $0x2,%ecx
 3001676:	66 c7 44 24 36 30 78 	movw   $0x7830,0x36(%esp)
 300167d:	83 c0 04             	add    $0x4,%eax
 3001680:	89 84 24 8c 00 00 00 	mov    %eax,0x8c(%esp)
 3001687:	c7 44 24 24 d0 60 00 	movl   $0x30060d0,0x24(%esp)
 300168e:	03 
 300168f:	b8 02 00 00 00       	mov    $0x2,%eax
 3001694:	e9 ff fe ff ff       	jmp    3001598 <_vfprintf_r+0x320>
 3001699:	8b 84 24 8c 00 00 00 	mov    0x8c(%esp),%eax
 30016a0:	8d 50 04             	lea    0x4(%eax),%edx
 30016a3:	8b 18                	mov    (%eax),%ebx
 30016a5:	c6 44 24 35 00       	movb   $0x0,0x35(%esp)
 30016aa:	85 db                	test   %ebx,%ebx
 30016ac:	0f 84 be 05 00 00    	je     3001c70 <_vfprintf_r+0x9f8>
 30016b2:	83 fe ff             	cmp    $0xffffffff,%esi
 30016b5:	0f 84 d3 05 00 00    	je     3001c8e <_vfprintf_r+0xa16>
 30016bb:	89 54 24 10          	mov    %edx,0x10(%esp)
 30016bf:	89 4c 24 0c          	mov    %ecx,0xc(%esp)
 30016c3:	52                   	push   %edx
 30016c4:	56                   	push   %esi
 30016c5:	6a 00                	push   $0x0
 30016c7:	53                   	push   %ebx
 30016c8:	e8 53 26 00 00       	call   3003d20 <memchr>
 30016cd:	83 c4 10             	add    $0x10,%esp
 30016d0:	85 c0                	test   %eax,%eax
 30016d2:	8b 4c 24 0c          	mov    0xc(%esp),%ecx
 30016d6:	8b 54 24 10          	mov    0x10(%esp),%edx
 30016da:	0f 84 ea 05 00 00    	je     3001cca <_vfprintf_r+0xa52>
 30016e0:	29 d8                	sub    %ebx,%eax
 30016e2:	89 44 24 10          	mov    %eax,0x10(%esp)
 30016e6:	8a 44 24 35          	mov    0x35(%esp),%al
 30016ea:	88 44 24 1c          	mov    %al,0x1c(%esp)
 30016ee:	89 94 24 8c 00 00 00 	mov    %edx,0x8c(%esp)
 30016f5:	31 f6                	xor    %esi,%esi
 30016f7:	e9 64 fe ff ff       	jmp    3001560 <_vfprintf_r+0x2e8>
 30016fc:	8b 84 24 8c 00 00 00 	mov    0x8c(%esp),%eax
 3001703:	8b 00                	mov    (%eax),%eax
 3001705:	88 44 24 38          	mov    %al,0x38(%esp)
 3001709:	c6 44 24 35 00       	movb   $0x0,0x35(%esp)
 300170e:	8b 84 24 8c 00 00 00 	mov    0x8c(%esp),%eax
 3001715:	83 c0 04             	add    $0x4,%eax
 3001718:	89 84 24 8c 00 00 00 	mov    %eax,0x8c(%esp)
 300171f:	bd 01 00 00 00       	mov    $0x1,%ebp
 3001724:	c7 44 24 10 01 00 00 	movl   $0x1,0x10(%esp)
 300172b:	00 
 300172c:	8d 5c 24 38          	lea    0x38(%esp),%ebx
 3001730:	e9 75 fc ff ff       	jmp    30013aa <_vfprintf_r+0x132>
 3001735:	89 ea                	mov    %ebp,%edx
 3001737:	84 d2                	test   %dl,%dl
 3001739:	0f 85 b2 05 00 00    	jne    3001cf1 <_vfprintf_r+0xa79>
 300173f:	c7 44 24 24 d0 60 00 	movl   $0x30060d0,0x24(%esp)
 3001746:	03 
 3001747:	e9 ca fe ff ff       	jmp    3001616 <_vfprintf_r+0x39e>
 300174c:	89 e8                	mov    %ebp,%eax
 300174e:	84 c0                	test   %al,%al
 3001750:	0f 85 ad 05 00 00    	jne    3001d03 <_vfprintf_r+0xa8b>
 3001756:	8b 84 24 8c 00 00 00 	mov    0x8c(%esp),%eax
 300175d:	83 c0 04             	add    $0x4,%eax
 3001760:	f6 c1 10             	test   $0x10,%cl
 3001763:	0f 85 84 fe ff ff    	jne    30015ed <_vfprintf_r+0x375>
 3001769:	8b 94 24 8c 00 00 00 	mov    0x8c(%esp),%edx
 3001770:	f6 c1 40             	test   $0x40,%cl
 3001773:	0f 84 c2 04 00 00    	je     3001c3b <_vfprintf_r+0x9c3>
 3001779:	0f b7 2a             	movzwl (%edx),%ebp
 300177c:	89 84 24 8c 00 00 00 	mov    %eax,0x8c(%esp)
 3001783:	b8 01 00 00 00       	mov    $0x1,%eax
 3001788:	e9 0b fe ff ff       	jmp    3001598 <_vfprintf_r+0x320>
 300178d:	80 c9 80             	or     $0x80,%cl
 3001790:	e9 35 fd ff ff       	jmp    30014ca <_vfprintf_r+0x252>
 3001795:	89 e8                	mov    %ebp,%eax
 3001797:	84 c0                	test   %al,%al
 3001799:	0f 85 5b 05 00 00    	jne    3001cfa <_vfprintf_r+0xa82>
 300179f:	83 c9 10             	or     $0x10,%ecx
 30017a2:	8b 84 24 8c 00 00 00 	mov    0x8c(%esp),%eax
 30017a9:	8d 50 04             	lea    0x4(%eax),%edx
 30017ac:	8b 84 24 8c 00 00 00 	mov    0x8c(%esp),%eax
 30017b3:	8b 00                	mov    (%eax),%eax
 30017b5:	89 c5                	mov    %eax,%ebp
 30017b7:	89 94 24 8c 00 00 00 	mov    %edx,0x8c(%esp)
 30017be:	85 c0                	test   %eax,%eax
 30017c0:	0f 89 63 fd ff ff    	jns    3001529 <_vfprintf_r+0x2b1>
 30017c6:	f7 dd                	neg    %ebp
 30017c8:	c6 44 24 35 2d       	movb   $0x2d,0x35(%esp)
 30017cd:	c6 44 24 1c 2d       	movb   $0x2d,0x1c(%esp)
 30017d2:	b8 01 00 00 00       	mov    $0x1,%eax
 30017d7:	83 fe ff             	cmp    $0xffffffff,%esi
 30017da:	0f 85 cb fd ff ff    	jne    30015ab <_vfprintf_r+0x333>
 30017e0:	83 f8 01             	cmp    $0x1,%eax
 30017e3:	0f 84 c4 02 00 00    	je     3001aad <_vfprintf_r+0x835>
 30017e9:	8d 5c 24 60          	lea    0x60(%esp),%ebx
 30017ed:	83 f8 02             	cmp    $0x2,%eax
 30017f0:	0f 85 c6 01 00 00    	jne    30019bc <_vfprintf_r+0x744>
 30017f6:	8b 54 24 24          	mov    0x24(%esp),%edx
 30017fa:	66 90                	xchg   %ax,%ax
 30017fc:	4b                   	dec    %ebx
 30017fd:	89 e8                	mov    %ebp,%eax
 30017ff:	83 e0 0f             	and    $0xf,%eax
 3001802:	8a 04 02             	mov    (%edx,%eax,1),%al
 3001805:	88 03                	mov    %al,(%ebx)
 3001807:	c1 ed 04             	shr    $0x4,%ebp
 300180a:	75 f0                	jne    30017fc <_vfprintf_r+0x584>
 300180c:	8d 44 24 60          	lea    0x60(%esp),%eax
 3001810:	29 d8                	sub    %ebx,%eax
 3001812:	89 44 24 10          	mov    %eax,0x10(%esp)
 3001816:	89 4c 24 0c          	mov    %ecx,0xc(%esp)
 300181a:	e9 41 fd ff ff       	jmp    3001560 <_vfprintf_r+0x2e8>
 300181f:	8b 84 24 88 00 00 00 	mov    0x88(%esp),%eax
 3001826:	8d 70 01             	lea    0x1(%eax),%esi
 3001829:	0f be 00             	movsbl (%eax),%eax
 300182c:	83 f8 2a             	cmp    $0x2a,%eax
 300182f:	0f 84 f2 04 00 00    	je     3001d27 <_vfprintf_r+0xaaf>
 3001835:	8d 50 d0             	lea    -0x30(%eax),%edx
 3001838:	89 b4 24 88 00 00 00 	mov    %esi,0x88(%esp)
 300183f:	31 f6                	xor    %esi,%esi
 3001841:	83 fa 09             	cmp    $0x9,%edx
 3001844:	0f 87 ea fa ff ff    	ja     3001334 <_vfprintf_r+0xbc>
 300184a:	89 4c 24 0c          	mov    %ecx,0xc(%esp)
 300184e:	8b 8c 24 88 00 00 00 	mov    0x88(%esp),%ecx
 3001855:	8d 76 00             	lea    0x0(%esi),%esi
 3001858:	8d 34 b6             	lea    (%esi,%esi,4),%esi
 300185b:	01 f6                	add    %esi,%esi
 300185d:	01 d6                	add    %edx,%esi
 300185f:	41                   	inc    %ecx
 3001860:	0f be 41 ff          	movsbl -0x1(%ecx),%eax
 3001864:	8d 50 d0             	lea    -0x30(%eax),%edx
 3001867:	83 fa 09             	cmp    $0x9,%edx
 300186a:	76 ec                	jbe    3001858 <_vfprintf_r+0x5e0>
 300186c:	89 8c 24 88 00 00 00 	mov    %ecx,0x88(%esp)
 3001873:	8b 4c 24 0c          	mov    0xc(%esp),%ecx
 3001877:	e9 b8 fa ff ff       	jmp    3001334 <_vfprintf_r+0xbc>
 300187c:	84 db                	test   %bl,%bl
 300187e:	0f 85 46 fc ff ff    	jne    30014ca <_vfprintf_r+0x252>
 3001884:	bd 01 00 00 00       	mov    $0x1,%ebp
 3001889:	b3 20                	mov    $0x20,%bl
 300188b:	e9 3a fc ff ff       	jmp    30014ca <_vfprintf_r+0x252>
 3001890:	83 c9 01             	or     $0x1,%ecx
 3001893:	e9 32 fc ff ff       	jmp    30014ca <_vfprintf_r+0x252>
 3001898:	8b 84 24 8c 00 00 00 	mov    0x8c(%esp),%eax
 300189f:	83 c0 04             	add    $0x4,%eax
 30018a2:	8b 94 24 8c 00 00 00 	mov    0x8c(%esp),%edx
 30018a9:	8b 12                	mov    (%edx),%edx
 30018ab:	89 54 24 14          	mov    %edx,0x14(%esp)
 30018af:	85 d2                	test   %edx,%edx
 30018b1:	0f 88 1f fc ff ff    	js     30014d6 <_vfprintf_r+0x25e>
 30018b7:	89 84 24 8c 00 00 00 	mov    %eax,0x8c(%esp)
 30018be:	e9 07 fc ff ff       	jmp    30014ca <_vfprintf_r+0x252>
 30018c3:	89 e8                	mov    %ebp,%eax
 30018c5:	84 c0                	test   %al,%al
 30018c7:	0f 85 3f 04 00 00    	jne    3001d0c <_vfprintf_r+0xa94>
 30018cd:	8b 84 24 8c 00 00 00 	mov    0x8c(%esp),%eax
 30018d4:	83 c0 04             	add    $0x4,%eax
 30018d7:	f6 c1 10             	test   $0x10,%cl
 30018da:	0f 85 a6 fc ff ff    	jne    3001586 <_vfprintf_r+0x30e>
 30018e0:	8b 94 24 8c 00 00 00 	mov    0x8c(%esp),%edx
 30018e7:	f6 c1 40             	test   $0x40,%cl
 30018ea:	0f 84 5e 03 00 00    	je     3001c4e <_vfprintf_r+0x9d6>
 30018f0:	0f b7 2a             	movzwl (%edx),%ebp
 30018f3:	89 84 24 8c 00 00 00 	mov    %eax,0x8c(%esp)
 30018fa:	31 c0                	xor    %eax,%eax
 30018fc:	e9 97 fc ff ff       	jmp    3001598 <_vfprintf_r+0x320>
 3001901:	83 c9 40             	or     $0x40,%ecx
 3001904:	e9 c1 fb ff ff       	jmp    30014ca <_vfprintf_r+0x252>
 3001909:	89 e8                	mov    %ebp,%eax
 300190b:	84 c0                	test   %al,%al
 300190d:	0f 85 d5 03 00 00    	jne    3001ce8 <_vfprintf_r+0xa70>
 3001913:	8b 84 24 8c 00 00 00 	mov    0x8c(%esp),%eax
 300191a:	8b 00                	mov    (%eax),%eax
 300191c:	83 84 24 8c 00 00 00 	addl   $0x4,0x8c(%esp)
 3001923:	04 
 3001924:	f6 c1 10             	test   $0x10,%cl
 3001927:	75 1d                	jne    3001946 <_vfprintf_r+0x6ce>
 3001929:	83 e1 40             	and    $0x40,%ecx
 300192c:	74 18                	je     3001946 <_vfprintf_r+0x6ce>
 300192e:	8b 4c 24 18          	mov    0x18(%esp),%ecx
 3001932:	66 89 08             	mov    %cx,(%eax)
 3001935:	e9 8e f9 ff ff       	jmp    30012c8 <_vfprintf_r+0x50>
 300193a:	bd 01 00 00 00       	mov    $0x1,%ebp
 300193f:	b3 2b                	mov    $0x2b,%bl
 3001941:	e9 84 fb ff ff       	jmp    30014ca <_vfprintf_r+0x252>
 3001946:	8b 4c 24 18          	mov    0x18(%esp),%ecx
 300194a:	89 08                	mov    %ecx,(%eax)
 300194c:	e9 77 f9 ff ff       	jmp    30012c8 <_vfprintf_r+0x50>
 3001951:	8d 76 00             	lea    0x0(%esi),%esi
 3001954:	8b 5c 24 1c          	mov    0x1c(%esp),%ebx
 3001958:	56                   	push   %esi
 3001959:	68 4c 62 00 03       	push   $0x300624c
 300195e:	57                   	push   %edi
 300195f:	ff b4 24 8c 00 00 00 	pushl  0x8c(%esp)
 3001966:	e8 9d 07 00 00       	call   3002108 <__sfputs_r>
 300196b:	83 c4 10             	add    $0x10,%esp
 300196e:	40                   	inc    %eax
 300196f:	0f 84 cf fa ff ff    	je     3001444 <_vfprintf_r+0x1cc>
 3001975:	ff 74 24 10          	pushl  0x10(%esp)
 3001979:	53                   	push   %ebx
 300197a:	57                   	push   %edi
 300197b:	ff b4 24 8c 00 00 00 	pushl  0x8c(%esp)
 3001982:	e8 81 07 00 00       	call   3002108 <__sfputs_r>
 3001987:	83 c4 10             	add    $0x10,%esp
 300198a:	40                   	inc    %eax
 300198b:	0f 84 b3 fa ff ff    	je     3001444 <_vfprintf_r+0x1cc>
 3001991:	f6 44 24 0c 04       	testb  $0x4,0xc(%esp)
 3001996:	74 0e                	je     30019a6 <_vfprintf_r+0x72e>
 3001998:	8b 5c 24 14          	mov    0x14(%esp),%ebx
 300199c:	29 eb                	sub    %ebp,%ebx
 300199e:	85 db                	test   %ebx,%ebx
 30019a0:	0f 8f 8a 01 00 00    	jg     3001b30 <_vfprintf_r+0x8b8>
 30019a6:	8b 44 24 14          	mov    0x14(%esp),%eax
 30019aa:	39 e8                	cmp    %ebp,%eax
 30019ac:	7d 02                	jge    30019b0 <_vfprintf_r+0x738>
 30019ae:	89 e8                	mov    %ebp,%eax
 30019b0:	01 44 24 18          	add    %eax,0x18(%esp)
 30019b4:	e9 0f f9 ff ff       	jmp    30012c8 <_vfprintf_r+0x50>
 30019b9:	8d 76 00             	lea    0x0(%esi),%esi
 30019bc:	89 da                	mov    %ebx,%edx
 30019be:	4b                   	dec    %ebx
 30019bf:	89 e8                	mov    %ebp,%eax
 30019c1:	83 e0 07             	and    $0x7,%eax
 30019c4:	83 c0 30             	add    $0x30,%eax
 30019c7:	88 03                	mov    %al,(%ebx)
 30019c9:	c1 ed 03             	shr    $0x3,%ebp
 30019cc:	75 ee                	jne    30019bc <_vfprintf_r+0x744>
 30019ce:	f6 c1 01             	test   $0x1,%cl
 30019d1:	0f 84 35 fe ff ff    	je     300180c <_vfprintf_r+0x594>
 30019d7:	3c 30                	cmp    $0x30,%al
 30019d9:	0f 84 2d fe ff ff    	je     300180c <_vfprintf_r+0x594>
 30019df:	83 ea 02             	sub    $0x2,%edx
 30019e2:	c6 43 ff 30          	movb   $0x30,-0x1(%ebx)
 30019e6:	8d 44 24 60          	lea    0x60(%esp),%eax
 30019ea:	29 d0                	sub    %edx,%eax
 30019ec:	89 44 24 10          	mov    %eax,0x10(%esp)
 30019f0:	89 4c 24 0c          	mov    %ecx,0xc(%esp)
 30019f4:	89 d3                	mov    %edx,%ebx
 30019f6:	e9 65 fb ff ff       	jmp    3001560 <_vfprintf_r+0x2e8>
 30019fb:	90                   	nop
 30019fc:	8b 54 24 14          	mov    0x14(%esp),%edx
 3001a00:	29 ea                	sub    %ebp,%edx
 3001a02:	85 d2                	test   %edx,%edx
 3001a04:	0f 8e f8 f9 ff ff    	jle    3001402 <_vfprintf_r+0x18a>
 3001a0a:	83 fa 10             	cmp    $0x10,%edx
 3001a0d:	0f 8e bb 01 00 00    	jle    3001bce <_vfprintf_r+0x956>
 3001a13:	89 5c 24 1c          	mov    %ebx,0x1c(%esp)
 3001a17:	89 74 24 20          	mov    %esi,0x20(%esp)
 3001a1b:	89 d3                	mov    %edx,%ebx
 3001a1d:	8b b4 24 80 00 00 00 	mov    0x80(%esp),%esi
 3001a24:	eb 0e                	jmp    3001a34 <_vfprintf_r+0x7bc>
 3001a26:	66 90                	xchg   %ax,%ax
 3001a28:	83 eb 10             	sub    $0x10,%ebx
 3001a2b:	83 fb 10             	cmp    $0x10,%ebx
 3001a2e:	0f 8e 90 01 00 00    	jle    3001bc4 <_vfprintf_r+0x94c>
 3001a34:	6a 10                	push   $0x10
 3001a36:	68 4c 62 00 03       	push   $0x300624c
 3001a3b:	57                   	push   %edi
 3001a3c:	56                   	push   %esi
 3001a3d:	e8 c6 06 00 00       	call   3002108 <__sfputs_r>
 3001a42:	83 c4 10             	add    $0x10,%esp
 3001a45:	40                   	inc    %eax
 3001a46:	75 e0                	jne    3001a28 <_vfprintf_r+0x7b0>
 3001a48:	e9 f7 f9 ff ff       	jmp    3001444 <_vfprintf_r+0x1cc>
 3001a4d:	8d 76 00             	lea    0x0(%esi),%esi
 3001a50:	6a 01                	push   $0x1
 3001a52:	8d 44 24 39          	lea    0x39(%esp),%eax
 3001a56:	50                   	push   %eax
 3001a57:	57                   	push   %edi
 3001a58:	ff b4 24 8c 00 00 00 	pushl  0x8c(%esp)
 3001a5f:	e8 a4 06 00 00       	call   3002108 <__sfputs_r>
 3001a64:	83 c4 10             	add    $0x10,%esp
 3001a67:	40                   	inc    %eax
 3001a68:	0f 84 d6 f9 ff ff    	je     3001444 <_vfprintf_r+0x1cc>
 3001a6e:	8b 44 24 1c          	mov    0x1c(%esp),%eax
 3001a72:	85 c0                	test   %eax,%eax
 3001a74:	0f 84 7a f9 ff ff    	je     30013f4 <_vfprintf_r+0x17c>
 3001a7a:	6a 02                	push   $0x2
 3001a7c:	8d 44 24 3a          	lea    0x3a(%esp),%eax
 3001a80:	50                   	push   %eax
 3001a81:	57                   	push   %edi
 3001a82:	ff b4 24 8c 00 00 00 	pushl  0x8c(%esp)
 3001a89:	e8 7a 06 00 00       	call   3002108 <__sfputs_r>
 3001a8e:	83 c4 10             	add    $0x10,%esp
 3001a91:	40                   	inc    %eax
 3001a92:	0f 85 5c f9 ff ff    	jne    30013f4 <_vfprintf_r+0x17c>
 3001a98:	e9 a7 f9 ff ff       	jmp    3001444 <_vfprintf_r+0x1cc>
 3001a9d:	8d 76 00             	lea    0x0(%esi),%esi
 3001aa0:	8b 4c 24 0c          	mov    0xc(%esp),%ecx
 3001aa4:	83 f8 01             	cmp    $0x1,%eax
 3001aa7:	0f 85 3c fd ff ff    	jne    30017e9 <_vfprintf_r+0x571>
 3001aad:	83 fd 09             	cmp    $0x9,%ebp
 3001ab0:	0f 87 3a 01 00 00    	ja     3001bf0 <_vfprintf_r+0x978>
 3001ab6:	8d 45 30             	lea    0x30(%ebp),%eax
 3001ab9:	88 44 24 5f          	mov    %al,0x5f(%esp)
 3001abd:	89 4c 24 0c          	mov    %ecx,0xc(%esp)
 3001ac1:	c7 44 24 10 01 00 00 	movl   $0x1,0x10(%esp)
 3001ac8:	00 
 3001ac9:	8d 5c 24 5f          	lea    0x5f(%esp),%ebx
 3001acd:	e9 8e fa ff ff       	jmp    3001560 <_vfprintf_r+0x2e8>
 3001ad2:	66 90                	xchg   %ax,%ax
 3001ad4:	83 fa 10             	cmp    $0x10,%edx
 3001ad7:	0f 8e 8e 00 00 00    	jle    3001b6b <_vfprintf_r+0x8f3>
 3001add:	89 5c 24 28          	mov    %ebx,0x28(%esp)
 3001ae1:	89 74 24 2c          	mov    %esi,0x2c(%esp)
 3001ae5:	89 d3                	mov    %edx,%ebx
 3001ae7:	8b b4 24 80 00 00 00 	mov    0x80(%esp),%esi
 3001aee:	eb 08                	jmp    3001af8 <_vfprintf_r+0x880>
 3001af0:	83 eb 10             	sub    $0x10,%ebx
 3001af3:	83 fb 10             	cmp    $0x10,%ebx
 3001af6:	7e 69                	jle    3001b61 <_vfprintf_r+0x8e9>
 3001af8:	6a 10                	push   $0x10
 3001afa:	68 5c 62 00 03       	push   $0x300625c
 3001aff:	57                   	push   %edi
 3001b00:	56                   	push   %esi
 3001b01:	e8 02 06 00 00       	call   3002108 <__sfputs_r>
 3001b06:	83 c4 10             	add    $0x10,%esp
 3001b09:	40                   	inc    %eax
 3001b0a:	75 e4                	jne    3001af0 <_vfprintf_r+0x878>
 3001b0c:	e9 33 f9 ff ff       	jmp    3001444 <_vfprintf_r+0x1cc>
 3001b11:	8d 76 00             	lea    0x0(%esi),%esi
 3001b14:	89 94 24 8c 00 00 00 	mov    %edx,0x8c(%esp)
 3001b1b:	b8 02 00 00 00       	mov    $0x2,%eax
 3001b20:	e9 73 fa ff ff       	jmp    3001598 <_vfprintf_r+0x320>
 3001b25:	8d 76 00             	lea    0x0(%esi),%esi
 3001b28:	8b 2b                	mov    (%ebx),%ebp
 3001b2a:	e9 0d fb ff ff       	jmp    300163c <_vfprintf_r+0x3c4>
 3001b2f:	90                   	nop
 3001b30:	83 fb 10             	cmp    $0x10,%ebx
 3001b33:	7e 6c                	jle    3001ba1 <_vfprintf_r+0x929>
 3001b35:	8b b4 24 80 00 00 00 	mov    0x80(%esp),%esi
 3001b3c:	eb 0a                	jmp    3001b48 <_vfprintf_r+0x8d0>
 3001b3e:	66 90                	xchg   %ax,%ax
 3001b40:	83 eb 10             	sub    $0x10,%ebx
 3001b43:	83 fb 10             	cmp    $0x10,%ebx
 3001b46:	7e 59                	jle    3001ba1 <_vfprintf_r+0x929>
 3001b48:	6a 10                	push   $0x10
 3001b4a:	68 5c 62 00 03       	push   $0x300625c
 3001b4f:	57                   	push   %edi
 3001b50:	56                   	push   %esi
 3001b51:	e8 b2 05 00 00       	call   3002108 <__sfputs_r>
 3001b56:	83 c4 10             	add    $0x10,%esp
 3001b59:	40                   	inc    %eax
 3001b5a:	75 e4                	jne    3001b40 <_vfprintf_r+0x8c8>
 3001b5c:	e9 e3 f8 ff ff       	jmp    3001444 <_vfprintf_r+0x1cc>
 3001b61:	8b 74 24 2c          	mov    0x2c(%esp),%esi
 3001b65:	89 da                	mov    %ebx,%edx
 3001b67:	8b 5c 24 28          	mov    0x28(%esp),%ebx
 3001b6b:	52                   	push   %edx
 3001b6c:	68 5c 62 00 03       	push   $0x300625c
 3001b71:	57                   	push   %edi
 3001b72:	ff b4 24 8c 00 00 00 	pushl  0x8c(%esp)
 3001b79:	e8 8a 05 00 00       	call   3002108 <__sfputs_r>
 3001b7e:	83 c4 10             	add    $0x10,%esp
 3001b81:	40                   	inc    %eax
 3001b82:	0f 85 55 f8 ff ff    	jne    30013dd <_vfprintf_r+0x165>
 3001b88:	e9 b7 f8 ff ff       	jmp    3001444 <_vfprintf_r+0x1cc>
 3001b8d:	8d 76 00             	lea    0x0(%esi),%esi
 3001b90:	c7 44 24 10 00 00 00 	movl   $0x0,0x10(%esp)
 3001b97:	00 
 3001b98:	8d 5c 24 60          	lea    0x60(%esp),%ebx
 3001b9c:	e9 bf f9 ff ff       	jmp    3001560 <_vfprintf_r+0x2e8>
 3001ba1:	53                   	push   %ebx
 3001ba2:	68 5c 62 00 03       	push   $0x300625c
 3001ba7:	57                   	push   %edi
 3001ba8:	ff b4 24 8c 00 00 00 	pushl  0x8c(%esp)
 3001baf:	e8 54 05 00 00       	call   3002108 <__sfputs_r>
 3001bb4:	83 c4 10             	add    $0x10,%esp
 3001bb7:	40                   	inc    %eax
 3001bb8:	0f 85 e8 fd ff ff    	jne    30019a6 <_vfprintf_r+0x72e>
 3001bbe:	e9 81 f8 ff ff       	jmp    3001444 <_vfprintf_r+0x1cc>
 3001bc3:	90                   	nop
 3001bc4:	8b 74 24 20          	mov    0x20(%esp),%esi
 3001bc8:	89 da                	mov    %ebx,%edx
 3001bca:	8b 5c 24 1c          	mov    0x1c(%esp),%ebx
 3001bce:	52                   	push   %edx
 3001bcf:	68 4c 62 00 03       	push   $0x300624c
 3001bd4:	57                   	push   %edi
 3001bd5:	ff b4 24 8c 00 00 00 	pushl  0x8c(%esp)
 3001bdc:	e8 27 05 00 00       	call   3002108 <__sfputs_r>
 3001be1:	83 c4 10             	add    $0x10,%esp
 3001be4:	40                   	inc    %eax
 3001be5:	0f 85 17 f8 ff ff    	jne    3001402 <_vfprintf_r+0x18a>
 3001beb:	e9 54 f8 ff ff       	jmp    3001444 <_vfprintf_r+0x1cc>
 3001bf0:	8d 5c 24 60          	lea    0x60(%esp),%ebx
 3001bf4:	89 4c 24 0c          	mov    %ecx,0xc(%esp)
 3001bf8:	4b                   	dec    %ebx
 3001bf9:	89 e8                	mov    %ebp,%eax
 3001bfb:	b9 0a 00 00 00       	mov    $0xa,%ecx
 3001c00:	31 d2                	xor    %edx,%edx
 3001c02:	f7 f1                	div    %ecx
 3001c04:	83 c2 30             	add    $0x30,%edx
 3001c07:	88 13                	mov    %dl,(%ebx)
 3001c09:	89 e9                	mov    %ebp,%ecx
 3001c0b:	b8 cd cc cc cc       	mov    $0xcccccccd,%eax
 3001c10:	f7 e5                	mul    %ebp
 3001c12:	89 d5                	mov    %edx,%ebp
 3001c14:	c1 ed 03             	shr    $0x3,%ebp
 3001c17:	83 f9 09             	cmp    $0x9,%ecx
 3001c1a:	77 dc                	ja     3001bf8 <_vfprintf_r+0x980>
 3001c1c:	8d 44 24 60          	lea    0x60(%esp),%eax
 3001c20:	29 d8                	sub    %ebx,%eax
 3001c22:	89 44 24 10          	mov    %eax,0x10(%esp)
 3001c26:	e9 35 f9 ff ff       	jmp    3001560 <_vfprintf_r+0x2e8>
 3001c2b:	8b 00                	mov    (%eax),%eax
 3001c2d:	89 c5                	mov    %eax,%ebp
 3001c2f:	89 94 24 8c 00 00 00 	mov    %edx,0x8c(%esp)
 3001c36:	e9 e6 f8 ff ff       	jmp    3001521 <_vfprintf_r+0x2a9>
 3001c3b:	8b 2a                	mov    (%edx),%ebp
 3001c3d:	89 84 24 8c 00 00 00 	mov    %eax,0x8c(%esp)
 3001c44:	b8 01 00 00 00       	mov    $0x1,%eax
 3001c49:	e9 4a f9 ff ff       	jmp    3001598 <_vfprintf_r+0x320>
 3001c4e:	8b 2a                	mov    (%edx),%ebp
 3001c50:	89 84 24 8c 00 00 00 	mov    %eax,0x8c(%esp)
 3001c57:	31 c0                	xor    %eax,%eax
 3001c59:	e9 3a f9 ff ff       	jmp    3001598 <_vfprintf_r+0x320>
 3001c5e:	8b 4c 24 0c          	mov    0xc(%esp),%ecx
 3001c62:	83 f8 01             	cmp    $0x1,%eax
 3001c65:	0f 85 7e fb ff ff    	jne    30017e9 <_vfprintf_r+0x571>
 3001c6b:	e9 46 fe ff ff       	jmp    3001ab6 <_vfprintf_r+0x83e>
 3001c70:	89 74 24 10          	mov    %esi,0x10(%esp)
 3001c74:	83 fe 06             	cmp    $0x6,%esi
 3001c77:	77 47                	ja     3001cc0 <_vfprintf_r+0xa48>
 3001c79:	8b 6c 24 10          	mov    0x10(%esp),%ebp
 3001c7d:	89 94 24 8c 00 00 00 	mov    %edx,0x8c(%esp)
 3001c84:	bb e1 60 00 03       	mov    $0x30060e1,%ebx
 3001c89:	e9 1c f7 ff ff       	jmp    30013aa <_vfprintf_r+0x132>
 3001c8e:	89 54 24 20          	mov    %edx,0x20(%esp)
 3001c92:	89 4c 24 0c          	mov    %ecx,0xc(%esp)
 3001c96:	83 ec 0c             	sub    $0xc,%esp
 3001c99:	53                   	push   %ebx
 3001c9a:	e8 7d 1f 00 00       	call   3003c1c <strlen>
 3001c9f:	89 44 24 20          	mov    %eax,0x20(%esp)
 3001ca3:	8a 44 24 45          	mov    0x45(%esp),%al
 3001ca7:	88 44 24 2c          	mov    %al,0x2c(%esp)
 3001cab:	83 c4 10             	add    $0x10,%esp
 3001cae:	8b 54 24 20          	mov    0x20(%esp),%edx
 3001cb2:	89 94 24 8c 00 00 00 	mov    %edx,0x8c(%esp)
 3001cb9:	31 f6                	xor    %esi,%esi
 3001cbb:	e9 a0 f8 ff ff       	jmp    3001560 <_vfprintf_r+0x2e8>
 3001cc0:	c7 44 24 10 06 00 00 	movl   $0x6,0x10(%esp)
 3001cc7:	00 
 3001cc8:	eb af                	jmp    3001c79 <_vfprintf_r+0xa01>
 3001cca:	8a 44 24 35          	mov    0x35(%esp),%al
 3001cce:	88 44 24 1c          	mov    %al,0x1c(%esp)
 3001cd2:	89 94 24 8c 00 00 00 	mov    %edx,0x8c(%esp)
 3001cd9:	89 74 24 10          	mov    %esi,0x10(%esp)
 3001cdd:	89 4c 24 0c          	mov    %ecx,0xc(%esp)
 3001ce1:	31 f6                	xor    %esi,%esi
 3001ce3:	e9 78 f8 ff ff       	jmp    3001560 <_vfprintf_r+0x2e8>
 3001ce8:	88 5c 24 35          	mov    %bl,0x35(%esp)
 3001cec:	e9 22 fc ff ff       	jmp    3001913 <_vfprintf_r+0x69b>
 3001cf1:	88 5c 24 35          	mov    %bl,0x35(%esp)
 3001cf5:	e9 45 fa ff ff       	jmp    300173f <_vfprintf_r+0x4c7>
 3001cfa:	88 5c 24 35          	mov    %bl,0x35(%esp)
 3001cfe:	e9 9c fa ff ff       	jmp    300179f <_vfprintf_r+0x527>
 3001d03:	88 5c 24 35          	mov    %bl,0x35(%esp)
 3001d07:	e9 4a fa ff ff       	jmp    3001756 <_vfprintf_r+0x4de>
 3001d0c:	88 5c 24 35          	mov    %bl,0x35(%esp)
 3001d10:	e9 b8 fb ff ff       	jmp    30018cd <_vfprintf_r+0x655>
 3001d15:	88 5c 24 35          	mov    %bl,0x35(%esp)
 3001d19:	e9 f0 f8 ff ff       	jmp    300160e <_vfprintf_r+0x396>
 3001d1e:	88 5c 24 35          	mov    %bl,0x35(%esp)
 3001d22:	e9 cb f7 ff ff       	jmp    30014f2 <_vfprintf_r+0x27a>
 3001d27:	89 74 24 0c          	mov    %esi,0xc(%esp)
 3001d2b:	8b 84 24 8c 00 00 00 	mov    0x8c(%esp),%eax
 3001d32:	83 c0 04             	add    $0x4,%eax
 3001d35:	8b 94 24 8c 00 00 00 	mov    0x8c(%esp),%edx
 3001d3c:	8b 32                	mov    (%edx),%esi
 3001d3e:	85 f6                	test   %esi,%esi
 3001d40:	79 05                	jns    3001d47 <_vfprintf_r+0xacf>
 3001d42:	be ff ff ff ff       	mov    $0xffffffff,%esi
 3001d47:	89 84 24 8c 00 00 00 	mov    %eax,0x8c(%esp)
 3001d4e:	8b 44 24 0c          	mov    0xc(%esp),%eax
 3001d52:	89 84 24 88 00 00 00 	mov    %eax,0x88(%esp)
 3001d59:	e9 6c f7 ff ff       	jmp    30014ca <_vfprintf_r+0x252>
 3001d5e:	66 90                	xchg   %ax,%ax

03001d60 <vfprintf>:
 3001d60:	83 ec 0c             	sub    $0xc,%esp
 3001d63:	e8 04 f4 ff ff       	call   300116c <__getreent>
 3001d68:	ff 74 24 18          	pushl  0x18(%esp)
 3001d6c:	ff 74 24 18          	pushl  0x18(%esp)
 3001d70:	ff 74 24 18          	pushl  0x18(%esp)
 3001d74:	50                   	push   %eax
 3001d75:	e8 fe f4 ff ff       	call   3001278 <_vfprintf_r>
 3001d7a:	83 c4 1c             	add    $0x1c,%esp
 3001d7d:	c3                   	ret    
 3001d7e:	66 90                	xchg   %ax,%ax

03001d80 <_fiprintf_r>:
 3001d80:	83 ec 0c             	sub    $0xc,%esp
 3001d83:	8d 44 24 1c          	lea    0x1c(%esp),%eax
 3001d87:	50                   	push   %eax
 3001d88:	ff 74 24 1c          	pushl  0x1c(%esp)
 3001d8c:	ff 74 24 1c          	pushl  0x1c(%esp)
 3001d90:	ff 74 24 1c          	pushl  0x1c(%esp)
 3001d94:	e8 07 04 00 00       	call   30021a0 <_vfiprintf_r>
 3001d99:	83 c4 1c             	add    $0x1c,%esp
 3001d9c:	c3                   	ret    
 3001d9d:	8d 76 00             	lea    0x0(%esi),%esi

03001da0 <fiprintf>:
 3001da0:	53                   	push   %ebx
 3001da1:	83 ec 08             	sub    $0x8,%esp
 3001da4:	8d 5c 24 18          	lea    0x18(%esp),%ebx
 3001da8:	e8 bf f3 ff ff       	call   300116c <__getreent>
 3001dad:	53                   	push   %ebx
 3001dae:	ff 74 24 18          	pushl  0x18(%esp)
 3001db2:	ff 74 24 18          	pushl  0x18(%esp)
 3001db6:	50                   	push   %eax
 3001db7:	e8 e4 03 00 00       	call   30021a0 <_vfiprintf_r>
 3001dbc:	83 c4 18             	add    $0x18,%esp
 3001dbf:	5b                   	pop    %ebx
 3001dc0:	c3                   	ret    
 3001dc1:	66 90                	xchg   %ax,%ax
 3001dc3:	90                   	nop

03001dc4 <__fp_lock>:
 3001dc4:	31 c0                	xor    %eax,%eax
 3001dc6:	c3                   	ret    
 3001dc7:	90                   	nop

03001dc8 <_cleanup_r>:
 3001dc8:	83 ec 14             	sub    $0x14,%esp
 3001dcb:	68 7c 2f 00 03       	push   $0x3002f7c
 3001dd0:	ff 74 24 1c          	pushl  0x1c(%esp)
 3001dd4:	e8 43 26 00 00       	call   300441c <_fwalk_reent>
 3001dd9:	83 c4 1c             	add    $0x1c,%esp
 3001ddc:	c3                   	ret    
 3001ddd:	8d 76 00             	lea    0x0(%esi),%esi

03001de0 <__sinit.part.0>:
 3001de0:	56                   	push   %esi
 3001de1:	53                   	push   %ebx
 3001de2:	83 ec 08             	sub    $0x8,%esp
 3001de5:	89 c6                	mov    %eax,%esi
 3001de7:	c7 40 3c c8 1d 00 03 	movl   $0x3001dc8,0x3c(%eax)
 3001dee:	c7 80 e0 02 00 00 00 	movl   $0x0,0x2e0(%eax)
 3001df5:	00 00 00 
 3001df8:	c7 80 e4 02 00 00 03 	movl   $0x3,0x2e4(%eax)
 3001dff:	00 00 00 
 3001e02:	8d 80 ec 02 00 00    	lea    0x2ec(%eax),%eax
 3001e08:	89 86 e8 02 00 00    	mov    %eax,0x2e8(%esi)
 3001e0e:	8b 5e 04             	mov    0x4(%esi),%ebx
 3001e11:	c7 43 64 00 00 00 00 	movl   $0x0,0x64(%ebx)
 3001e18:	c7 03 00 00 00 00    	movl   $0x0,(%ebx)
 3001e1e:	c7 43 04 00 00 00 00 	movl   $0x0,0x4(%ebx)
 3001e25:	c7 43 08 00 00 00 00 	movl   $0x0,0x8(%ebx)
 3001e2c:	c7 43 0c 04 00 00 00 	movl   $0x4,0xc(%ebx)
 3001e33:	c7 43 10 00 00 00 00 	movl   $0x0,0x10(%ebx)
 3001e3a:	c7 43 14 00 00 00 00 	movl   $0x0,0x14(%ebx)
 3001e41:	c7 43 18 00 00 00 00 	movl   $0x0,0x18(%ebx)
 3001e48:	6a 08                	push   $0x8
 3001e4a:	6a 00                	push   $0x0
 3001e4c:	8d 43 5c             	lea    0x5c(%ebx),%eax
 3001e4f:	50                   	push   %eax
 3001e50:	e8 0f 1e 00 00       	call   3003c64 <memset>
 3001e55:	89 5b 1c             	mov    %ebx,0x1c(%ebx)
 3001e58:	c7 43 20 9c 49 00 03 	movl   $0x300499c,0x20(%ebx)
 3001e5f:	c7 43 24 dc 49 00 03 	movl   $0x30049dc,0x24(%ebx)
 3001e66:	c7 43 28 3c 4a 00 03 	movl   $0x3004a3c,0x28(%ebx)
 3001e6d:	c7 43 2c 7c 4a 00 03 	movl   $0x3004a7c,0x2c(%ebx)
 3001e74:	8b 5e 08             	mov    0x8(%esi),%ebx
 3001e77:	c7 43 64 00 00 00 00 	movl   $0x0,0x64(%ebx)
 3001e7e:	c7 03 00 00 00 00    	movl   $0x0,(%ebx)
 3001e84:	c7 43 04 00 00 00 00 	movl   $0x0,0x4(%ebx)
 3001e8b:	c7 43 08 00 00 00 00 	movl   $0x0,0x8(%ebx)
 3001e92:	c7 43 0c 09 00 01 00 	movl   $0x10009,0xc(%ebx)
 3001e99:	c7 43 10 00 00 00 00 	movl   $0x0,0x10(%ebx)
 3001ea0:	c7 43 14 00 00 00 00 	movl   $0x0,0x14(%ebx)
 3001ea7:	c7 43 18 00 00 00 00 	movl   $0x0,0x18(%ebx)
 3001eae:	83 c4 0c             	add    $0xc,%esp
 3001eb1:	6a 08                	push   $0x8
 3001eb3:	6a 00                	push   $0x0
 3001eb5:	8d 43 5c             	lea    0x5c(%ebx),%eax
 3001eb8:	50                   	push   %eax
 3001eb9:	e8 a6 1d 00 00       	call   3003c64 <memset>
 3001ebe:	89 5b 1c             	mov    %ebx,0x1c(%ebx)
 3001ec1:	c7 43 20 9c 49 00 03 	movl   $0x300499c,0x20(%ebx)
 3001ec8:	c7 43 24 dc 49 00 03 	movl   $0x30049dc,0x24(%ebx)
 3001ecf:	c7 43 28 3c 4a 00 03 	movl   $0x3004a3c,0x28(%ebx)
 3001ed6:	c7 43 2c 7c 4a 00 03 	movl   $0x3004a7c,0x2c(%ebx)
 3001edd:	8b 5e 0c             	mov    0xc(%esi),%ebx
 3001ee0:	c7 43 64 00 00 00 00 	movl   $0x0,0x64(%ebx)
 3001ee7:	c7 03 00 00 00 00    	movl   $0x0,(%ebx)
 3001eed:	c7 43 04 00 00 00 00 	movl   $0x0,0x4(%ebx)
 3001ef4:	c7 43 08 00 00 00 00 	movl   $0x0,0x8(%ebx)
 3001efb:	c7 43 0c 12 00 02 00 	movl   $0x20012,0xc(%ebx)
 3001f02:	c7 43 10 00 00 00 00 	movl   $0x0,0x10(%ebx)
 3001f09:	c7 43 14 00 00 00 00 	movl   $0x0,0x14(%ebx)
 3001f10:	c7 43 18 00 00 00 00 	movl   $0x0,0x18(%ebx)
 3001f17:	83 c4 0c             	add    $0xc,%esp
 3001f1a:	6a 08                	push   $0x8
 3001f1c:	6a 00                	push   $0x0
 3001f1e:	8d 43 5c             	lea    0x5c(%ebx),%eax
 3001f21:	50                   	push   %eax
 3001f22:	e8 3d 1d 00 00       	call   3003c64 <memset>
 3001f27:	89 5b 1c             	mov    %ebx,0x1c(%ebx)
 3001f2a:	c7 43 20 9c 49 00 03 	movl   $0x300499c,0x20(%ebx)
 3001f31:	c7 43 24 dc 49 00 03 	movl   $0x30049dc,0x24(%ebx)
 3001f38:	c7 43 28 3c 4a 00 03 	movl   $0x3004a3c,0x28(%ebx)
 3001f3f:	c7 43 2c 7c 4a 00 03 	movl   $0x3004a7c,0x2c(%ebx)
 3001f46:	c7 46 38 01 00 00 00 	movl   $0x1,0x38(%esi)
 3001f4d:	83 c4 14             	add    $0x14,%esp
 3001f50:	5b                   	pop    %ebx
 3001f51:	5e                   	pop    %esi
 3001f52:	c3                   	ret    
 3001f53:	90                   	nop

03001f54 <__fp_unlock>:
 3001f54:	31 c0                	xor    %eax,%eax
 3001f56:	c3                   	ret    
 3001f57:	90                   	nop

03001f58 <__sfmoreglue>:
 3001f58:	57                   	push   %edi
 3001f59:	56                   	push   %esi
 3001f5a:	53                   	push   %ebx
 3001f5b:	8b 7c 24 14          	mov    0x14(%esp),%edi
 3001f5f:	8d 44 3f fe          	lea    -0x2(%edi,%edi,1),%eax
 3001f63:	8d 44 07 ff          	lea    -0x1(%edi,%eax,1),%eax
 3001f67:	8d 74 87 ff          	lea    -0x1(%edi,%eax,4),%esi
 3001f6b:	c1 e6 03             	shl    $0x3,%esi
 3001f6e:	83 ec 08             	sub    $0x8,%esp
 3001f71:	8d 46 74             	lea    0x74(%esi),%eax
 3001f74:	50                   	push   %eax
 3001f75:	ff 74 24 1c          	pushl  0x1c(%esp)
 3001f79:	e8 d6 14 00 00       	call   3003454 <_malloc_r>
 3001f7e:	89 c3                	mov    %eax,%ebx
 3001f80:	83 c4 10             	add    $0x10,%esp
 3001f83:	85 c0                	test   %eax,%eax
 3001f85:	74 1f                	je     3001fa6 <__sfmoreglue+0x4e>
 3001f87:	c7 00 00 00 00 00    	movl   $0x0,(%eax)
 3001f8d:	89 78 04             	mov    %edi,0x4(%eax)
 3001f90:	8d 40 0c             	lea    0xc(%eax),%eax
 3001f93:	89 43 08             	mov    %eax,0x8(%ebx)
 3001f96:	52                   	push   %edx
 3001f97:	83 c6 68             	add    $0x68,%esi
 3001f9a:	56                   	push   %esi
 3001f9b:	6a 00                	push   $0x0
 3001f9d:	50                   	push   %eax
 3001f9e:	e8 c1 1c 00 00       	call   3003c64 <memset>
 3001fa3:	83 c4 10             	add    $0x10,%esp
 3001fa6:	89 d8                	mov    %ebx,%eax
 3001fa8:	5b                   	pop    %ebx
 3001fa9:	5e                   	pop    %esi
 3001faa:	5f                   	pop    %edi
 3001fab:	c3                   	ret    

03001fac <__sfp>:
 3001fac:	56                   	push   %esi
 3001fad:	53                   	push   %ebx
 3001fae:	53                   	push   %ebx
 3001faf:	8b 35 f0 63 00 03    	mov    0x30063f0,%esi
 3001fb5:	8b 46 38             	mov    0x38(%esi),%eax
 3001fb8:	85 c0                	test   %eax,%eax
 3001fba:	0f 84 a0 00 00 00    	je     3002060 <__sfp+0xb4>
 3001fc0:	81 c6 e0 02 00 00    	add    $0x2e0,%esi
 3001fc6:	8b 5e 08             	mov    0x8(%esi),%ebx
 3001fc9:	8b 46 04             	mov    0x4(%esi),%eax
 3001fcc:	48                   	dec    %eax
 3001fcd:	79 0e                	jns    3001fdd <__sfp+0x31>
 3001fcf:	eb 7f                	jmp    3002050 <__sfp+0xa4>
 3001fd1:	8d 76 00             	lea    0x0(%esi),%esi
 3001fd4:	83 c3 68             	add    $0x68,%ebx
 3001fd7:	48                   	dec    %eax
 3001fd8:	83 f8 ff             	cmp    $0xffffffff,%eax
 3001fdb:	74 73                	je     3002050 <__sfp+0xa4>
 3001fdd:	66 83 7b 0c 00       	cmpw   $0x0,0xc(%ebx)
 3001fe2:	75 f0                	jne    3001fd4 <__sfp+0x28>
 3001fe4:	c7 43 64 00 00 00 00 	movl   $0x0,0x64(%ebx)
 3001feb:	c7 03 00 00 00 00    	movl   $0x0,(%ebx)
 3001ff1:	c7 43 04 00 00 00 00 	movl   $0x0,0x4(%ebx)
 3001ff8:	c7 43 08 00 00 00 00 	movl   $0x0,0x8(%ebx)
 3001fff:	c7 43 0c 01 00 ff ff 	movl   $0xffff0001,0xc(%ebx)
 3002006:	c7 43 10 00 00 00 00 	movl   $0x0,0x10(%ebx)
 300200d:	c7 43 14 00 00 00 00 	movl   $0x0,0x14(%ebx)
 3002014:	c7 43 18 00 00 00 00 	movl   $0x0,0x18(%ebx)
 300201b:	51                   	push   %ecx
 300201c:	6a 08                	push   $0x8
 300201e:	6a 00                	push   $0x0
 3002020:	8d 43 5c             	lea    0x5c(%ebx),%eax
 3002023:	50                   	push   %eax
 3002024:	e8 3b 1c 00 00       	call   3003c64 <memset>
 3002029:	c7 43 30 00 00 00 00 	movl   $0x0,0x30(%ebx)
 3002030:	c7 43 34 00 00 00 00 	movl   $0x0,0x34(%ebx)
 3002037:	c7 43 44 00 00 00 00 	movl   $0x0,0x44(%ebx)
 300203e:	c7 43 48 00 00 00 00 	movl   $0x0,0x48(%ebx)
 3002045:	83 c4 10             	add    $0x10,%esp
 3002048:	89 d8                	mov    %ebx,%eax
 300204a:	5a                   	pop    %edx
 300204b:	5b                   	pop    %ebx
 300204c:	5e                   	pop    %esi
 300204d:	c3                   	ret    
 300204e:	66 90                	xchg   %ax,%ax
 3002050:	8b 1e                	mov    (%esi),%ebx
 3002052:	85 db                	test   %ebx,%ebx
 3002054:	74 16                	je     300206c <__sfp+0xc0>
 3002056:	89 de                	mov    %ebx,%esi
 3002058:	e9 69 ff ff ff       	jmp    3001fc6 <__sfp+0x1a>
 300205d:	8d 76 00             	lea    0x0(%esi),%esi
 3002060:	89 f0                	mov    %esi,%eax
 3002062:	e8 79 fd ff ff       	call   3001de0 <__sinit.part.0>
 3002067:	e9 54 ff ff ff       	jmp    3001fc0 <__sfp+0x14>
 300206c:	83 ec 08             	sub    $0x8,%esp
 300206f:	6a 04                	push   $0x4
 3002071:	ff 74 24 1c          	pushl  0x1c(%esp)
 3002075:	e8 de fe ff ff       	call   3001f58 <__sfmoreglue>
 300207a:	89 c3                	mov    %eax,%ebx
 300207c:	89 06                	mov    %eax,(%esi)
 300207e:	83 c4 10             	add    $0x10,%esp
 3002081:	85 c0                	test   %eax,%eax
 3002083:	75 d1                	jne    3002056 <__sfp+0xaa>
 3002085:	8b 44 24 10          	mov    0x10(%esp),%eax
 3002089:	c7 00 0c 00 00 00    	movl   $0xc,(%eax)
 300208f:	eb b7                	jmp    3002048 <__sfp+0x9c>
 3002091:	8d 76 00             	lea    0x0(%esi),%esi

03002094 <_cleanup>:
 3002094:	83 ec 14             	sub    $0x14,%esp
 3002097:	68 7c 2f 00 03       	push   $0x3002f7c
 300209c:	ff 35 f0 63 00 03    	pushl  0x30063f0
 30020a2:	e8 75 23 00 00       	call   300441c <_fwalk_reent>
 30020a7:	83 c4 1c             	add    $0x1c,%esp
 30020aa:	c3                   	ret    
 30020ab:	90                   	nop

030020ac <__sinit>:
 30020ac:	8b 44 24 04          	mov    0x4(%esp),%eax
 30020b0:	8b 50 38             	mov    0x38(%eax),%edx
 30020b3:	85 d2                	test   %edx,%edx
 30020b5:	74 01                	je     30020b8 <__sinit+0xc>
 30020b7:	c3                   	ret    
 30020b8:	e9 23 fd ff ff       	jmp    3001de0 <__sinit.part.0>
 30020bd:	8d 76 00             	lea    0x0(%esi),%esi

030020c0 <__sfp_lock_acquire>:
 30020c0:	c3                   	ret    
 30020c1:	8d 76 00             	lea    0x0(%esi),%esi

030020c4 <__sfp_lock_release>:
 30020c4:	c3                   	ret    
 30020c5:	8d 76 00             	lea    0x0(%esi),%esi

030020c8 <__sinit_lock_acquire>:
 30020c8:	c3                   	ret    
 30020c9:	8d 76 00             	lea    0x0(%esi),%esi

030020cc <__sinit_lock_release>:
 30020cc:	c3                   	ret    
 30020cd:	8d 76 00             	lea    0x0(%esi),%esi

030020d0 <__fp_lock_all>:
 30020d0:	83 ec 0c             	sub    $0xc,%esp
 30020d3:	e8 94 f0 ff ff       	call   300116c <__getreent>
 30020d8:	83 ec 08             	sub    $0x8,%esp
 30020db:	68 c4 1d 00 03       	push   $0x3001dc4
 30020e0:	50                   	push   %eax
 30020e1:	e8 e2 22 00 00       	call   30043c8 <_fwalk>
 30020e6:	83 c4 1c             	add    $0x1c,%esp
 30020e9:	c3                   	ret    
 30020ea:	66 90                	xchg   %ax,%ax

030020ec <__fp_unlock_all>:
 30020ec:	83 ec 0c             	sub    $0xc,%esp
 30020ef:	e8 78 f0 ff ff       	call   300116c <__getreent>
 30020f4:	83 ec 08             	sub    $0x8,%esp
 30020f7:	68 54 1f 00 03       	push   $0x3001f54
 30020fc:	50                   	push   %eax
 30020fd:	e8 c6 22 00 00       	call   30043c8 <_fwalk>
 3002102:	83 c4 1c             	add    $0x1c,%esp
 3002105:	c3                   	ret    
 3002106:	66 90                	xchg   %ax,%ax

03002108 <__sfputs_r>:
 3002108:	55                   	push   %ebp
 3002109:	57                   	push   %edi
 300210a:	56                   	push   %esi
 300210b:	53                   	push   %ebx
 300210c:	83 ec 0c             	sub    $0xc,%esp
 300210f:	8b 74 24 20          	mov    0x20(%esp),%esi
 3002113:	8b 7c 24 24          	mov    0x24(%esp),%edi
 3002117:	8b 5c 24 2c          	mov    0x2c(%esp),%ebx
 300211b:	85 db                	test   %ebx,%ebx
 300211d:	74 2d                	je     300214c <__sfputs_r+0x44>
 300211f:	8b 6c 24 28          	mov    0x28(%esp),%ebp
 3002123:	01 eb                	add    %ebp,%ebx
 3002125:	eb 06                	jmp    300212d <__sfputs_r+0x25>
 3002127:	90                   	nop
 3002128:	45                   	inc    %ebp
 3002129:	39 dd                	cmp    %ebx,%ebp
 300212b:	74 1f                	je     300214c <__sfputs_r+0x44>
 300212d:	50                   	push   %eax
 300212e:	57                   	push   %edi
 300212f:	0f be 45 00          	movsbl 0x0(%ebp),%eax
 3002133:	50                   	push   %eax
 3002134:	56                   	push   %esi
 3002135:	e8 9a 0c 00 00       	call   3002dd4 <_fputc_r>
 300213a:	83 c4 10             	add    $0x10,%esp
 300213d:	83 f8 ff             	cmp    $0xffffffff,%eax
 3002140:	75 e6                	jne    3002128 <__sfputs_r+0x20>
 3002142:	83 c4 0c             	add    $0xc,%esp
 3002145:	5b                   	pop    %ebx
 3002146:	5e                   	pop    %esi
 3002147:	5f                   	pop    %edi
 3002148:	5d                   	pop    %ebp
 3002149:	c3                   	ret    
 300214a:	66 90                	xchg   %ax,%ax
 300214c:	31 c0                	xor    %eax,%eax
 300214e:	83 c4 0c             	add    $0xc,%esp
 3002151:	5b                   	pop    %ebx
 3002152:	5e                   	pop    %esi
 3002153:	5f                   	pop    %edi
 3002154:	5d                   	pop    %ebp
 3002155:	c3                   	ret    
 3002156:	66 90                	xchg   %ax,%ax

03002158 <__sprint_r>:
 3002158:	53                   	push   %ebx
 3002159:	83 ec 08             	sub    $0x8,%esp
 300215c:	8b 5c 24 18          	mov    0x18(%esp),%ebx
 3002160:	8b 53 08             	mov    0x8(%ebx),%edx
 3002163:	85 d2                	test   %edx,%edx
 3002165:	75 11                	jne    3002178 <__sprint_r+0x20>
 3002167:	c7 43 04 00 00 00 00 	movl   $0x0,0x4(%ebx)
 300216e:	31 c0                	xor    %eax,%eax
 3002170:	83 c4 08             	add    $0x8,%esp
 3002173:	5b                   	pop    %ebx
 3002174:	c3                   	ret    
 3002175:	8d 76 00             	lea    0x0(%esi),%esi
 3002178:	50                   	push   %eax
 3002179:	53                   	push   %ebx
 300217a:	ff 74 24 1c          	pushl  0x1c(%esp)
 300217e:	ff 74 24 1c          	pushl  0x1c(%esp)
 3002182:	e8 d5 23 00 00       	call   300455c <__sfvwrite_r>
 3002187:	c7 43 08 00 00 00 00 	movl   $0x0,0x8(%ebx)
 300218e:	c7 43 04 00 00 00 00 	movl   $0x0,0x4(%ebx)
 3002195:	83 c4 10             	add    $0x10,%esp
 3002198:	83 c4 08             	add    $0x8,%esp
 300219b:	5b                   	pop    %ebx
 300219c:	c3                   	ret    
 300219d:	8d 76 00             	lea    0x0(%esi),%esi

030021a0 <_vfiprintf_r>:
 30021a0:	55                   	push   %ebp
 30021a1:	57                   	push   %edi
 30021a2:	56                   	push   %esi
 30021a3:	53                   	push   %ebx
 30021a4:	83 ec 6c             	sub    $0x6c,%esp
 30021a7:	8b 9c 24 80 00 00 00 	mov    0x80(%esp),%ebx
 30021ae:	8b ac 24 84 00 00 00 	mov    0x84(%esp),%ebp
 30021b5:	85 db                	test   %ebx,%ebx
 30021b7:	74 0b                	je     30021c4 <_vfiprintf_r+0x24>
 30021b9:	8b 73 38             	mov    0x38(%ebx),%esi
 30021bc:	85 f6                	test   %esi,%esi
 30021be:	0f 84 17 02 00 00    	je     30023db <_vfiprintf_r+0x23b>
 30021c4:	f6 45 0c 08          	testb  $0x8,0xc(%ebp)
 30021c8:	0f 84 a0 01 00 00    	je     300236e <_vfiprintf_r+0x1ce>
 30021ce:	8b 4d 10             	mov    0x10(%ebp),%ecx
 30021d1:	85 c9                	test   %ecx,%ecx
 30021d3:	0f 84 95 01 00 00    	je     300236e <_vfiprintf_r+0x1ce>
 30021d9:	c7 44 24 28 00 00 00 	movl   $0x0,0x28(%esp)
 30021e0:	00 
 30021e1:	c7 44 24 1c 00 00 00 	movl   $0x0,0x1c(%esp)
 30021e8:	00 
 30021e9:	8b 84 24 88 00 00 00 	mov    0x88(%esp),%eax
 30021f0:	0f be 00             	movsbl (%eax),%eax
 30021f3:	84 c0                	test   %al,%al
 30021f5:	0f 84 61 01 00 00    	je     300235c <_vfiprintf_r+0x1bc>
 30021fb:	8b bc 24 88 00 00 00 	mov    0x88(%esp),%edi
 3002202:	88 c2                	mov    %al,%dl
 3002204:	eb 0d                	jmp    3002213 <_vfiprintf_r+0x73>
 3002206:	66 90                	xchg   %ax,%ax
 3002208:	47                   	inc    %edi
 3002209:	8a 17                	mov    (%edi),%dl
 300220b:	84 d2                	test   %dl,%dl
 300220d:	0f 84 7d 01 00 00    	je     3002390 <_vfiprintf_r+0x1f0>
 3002213:	80 fa 25             	cmp    $0x25,%dl
 3002216:	75 f0                	jne    3002208 <_vfiprintf_r+0x68>
 3002218:	89 f9                	mov    %edi,%ecx
 300221a:	2b 8c 24 88 00 00 00 	sub    0x88(%esp),%ecx
 3002221:	89 0c 24             	mov    %ecx,(%esp)
 3002224:	0f 85 74 01 00 00    	jne    300239e <_vfiprintf_r+0x1fe>
 300222a:	8a 07                	mov    (%edi),%al
 300222c:	84 c0                	test   %al,%al
 300222e:	0f 84 28 01 00 00    	je     300235c <_vfiprintf_r+0x1bc>
 3002234:	47                   	inc    %edi
 3002235:	c6 44 24 04 00       	movb   $0x0,0x4(%esp)
 300223a:	b9 ff ff ff ff       	mov    $0xffffffff,%ecx
 300223f:	c7 44 24 18 00 00 00 	movl   $0x0,0x18(%esp)
 3002246:	00 
 3002247:	c7 04 24 00 00 00 00 	movl   $0x0,(%esp)
 300224e:	8d 57 01             	lea    0x1(%edi),%edx
 3002251:	0f be 07             	movsbl (%edi),%eax
 3002254:	8d 70 e0             	lea    -0x20(%eax),%esi
 3002257:	83 fe 58             	cmp    $0x58,%esi
 300225a:	77 2c                	ja     3002288 <_vfiprintf_r+0xe8>
 300225c:	ff 24 b5 6c 62 00 03 	jmp    *0x300626c(,%esi,4)
 3002263:	31 ff                	xor    %edi,%edi
 3002265:	8d 70 d0             	lea    -0x30(%eax),%esi
 3002268:	8d 3c bf             	lea    (%edi,%edi,4),%edi
 300226b:	01 ff                	add    %edi,%edi
 300226d:	01 f7                	add    %esi,%edi
 300226f:	42                   	inc    %edx
 3002270:	0f be 42 ff          	movsbl -0x1(%edx),%eax
 3002274:	8d 70 d0             	lea    -0x30(%eax),%esi
 3002277:	83 fe 09             	cmp    $0x9,%esi
 300227a:	76 ec                	jbe    3002268 <_vfiprintf_r+0xc8>
 300227c:	89 7c 24 18          	mov    %edi,0x18(%esp)
 3002280:	8d 70 e0             	lea    -0x20(%eax),%esi
 3002283:	83 fe 58             	cmp    $0x58,%esi
 3002286:	76 d4                	jbe    300225c <_vfiprintf_r+0xbc>
 3002288:	89 94 24 88 00 00 00 	mov    %edx,0x88(%esp)
 300228f:	85 c0                	test   %eax,%eax
 3002291:	0f 84 c5 00 00 00    	je     300235c <_vfiprintf_r+0x1bc>
 3002297:	88 44 24 38          	mov    %al,0x38(%esp)
 300229b:	c6 44 24 04 00       	movb   $0x0,0x4(%esp)
 30022a0:	c7 44 24 14 01 00 00 	movl   $0x1,0x14(%esp)
 30022a7:	00 
 30022a8:	c7 44 24 10 00 00 00 	movl   $0x0,0x10(%esp)
 30022af:	00 
 30022b0:	8d 44 24 38          	lea    0x38(%esp),%eax
 30022b4:	89 44 24 24          	mov    %eax,0x24(%esp)
 30022b8:	c7 44 24 08 01 00 00 	movl   $0x1,0x8(%esp)
 30022bf:	00 
 30022c0:	8b 04 24             	mov    (%esp),%eax
 30022c3:	83 e0 02             	and    $0x2,%eax
 30022c6:	89 44 24 0c          	mov    %eax,0xc(%esp)
 30022ca:	74 05                	je     30022d1 <_vfiprintf_r+0x131>
 30022cc:	83 44 24 08 02       	addl   $0x2,0x8(%esp)
 30022d1:	8b 04 24             	mov    (%esp),%eax
 30022d4:	25 84 00 00 00       	and    $0x84,%eax
 30022d9:	89 44 24 20          	mov    %eax,0x20(%esp)
 30022dd:	75 10                	jne    30022ef <_vfiprintf_r+0x14f>
 30022df:	8b 74 24 18          	mov    0x18(%esp),%esi
 30022e3:	2b 74 24 08          	sub    0x8(%esp),%esi
 30022e7:	85 f6                	test   %esi,%esi
 30022e9:	0f 8f fc 07 00 00    	jg     3002aeb <_vfiprintf_r+0x94b>
 30022ef:	80 7c 24 04 00       	cmpb   $0x0,0x4(%esp)
 30022f4:	0f 85 36 06 00 00    	jne    3002930 <_vfiprintf_r+0x790>
 30022fa:	8b 44 24 0c          	mov    0xc(%esp),%eax
 30022fe:	85 c0                	test   %eax,%eax
 3002300:	0f 85 4e 06 00 00    	jne    3002954 <_vfiprintf_r+0x7b4>
 3002306:	81 7c 24 20 80 00 00 	cmpl   $0x80,0x20(%esp)
 300230d:	00 
 300230e:	0f 84 7a 06 00 00    	je     300298e <_vfiprintf_r+0x7ee>
 3002314:	8b 74 24 10          	mov    0x10(%esp),%esi
 3002318:	2b 74 24 14          	sub    0x14(%esp),%esi
 300231c:	85 f6                	test   %esi,%esi
 300231e:	0f 8e b4 06 00 00    	jle    30029d8 <_vfiprintf_r+0x838>
 3002324:	83 fe 10             	cmp    $0x10,%esi
 3002327:	0f 8e d3 05 00 00    	jle    3002900 <_vfiprintf_r+0x760>
 300232d:	8d 76 00             	lea    0x0(%esi),%esi
 3002330:	b8 30 00 00 00       	mov    $0x30,%eax
 3002335:	31 ff                	xor    %edi,%edi
 3002337:	eb 14                	jmp    300234d <_vfiprintf_r+0x1ad>
 3002339:	8d 76 00             	lea    0x0(%esi),%esi
 300233c:	47                   	inc    %edi
 300233d:	83 ff 10             	cmp    $0x10,%edi
 3002340:	0f 84 ae 05 00 00    	je     30028f4 <_vfiprintf_r+0x754>
 3002346:	0f be 87 d0 63 00 03 	movsbl 0x30063d0(%edi),%eax
 300234d:	51                   	push   %ecx
 300234e:	55                   	push   %ebp
 300234f:	50                   	push   %eax
 3002350:	53                   	push   %ebx
 3002351:	e8 7e 0a 00 00       	call   3002dd4 <_fputc_r>
 3002356:	83 c4 10             	add    $0x10,%esp
 3002359:	40                   	inc    %eax
 300235a:	75 e0                	jne    300233c <_vfiprintf_r+0x19c>
 300235c:	f6 45 0c 40          	testb  $0x40,0xc(%ebp)
 3002360:	75 21                	jne    3002383 <_vfiprintf_r+0x1e3>
 3002362:	8b 44 24 1c          	mov    0x1c(%esp),%eax
 3002366:	83 c4 6c             	add    $0x6c,%esp
 3002369:	5b                   	pop    %ebx
 300236a:	5e                   	pop    %esi
 300236b:	5f                   	pop    %edi
 300236c:	5d                   	pop    %ebp
 300236d:	c3                   	ret    
 300236e:	83 ec 08             	sub    $0x8,%esp
 3002371:	55                   	push   %ebp
 3002372:	53                   	push   %ebx
 3002373:	e8 dc 0a 00 00       	call   3002e54 <__swsetup_r>
 3002378:	83 c4 10             	add    $0x10,%esp
 300237b:	85 c0                	test   %eax,%eax
 300237d:	0f 84 56 fe ff ff    	je     30021d9 <_vfiprintf_r+0x39>
 3002383:	c7 44 24 1c ff ff ff 	movl   $0xffffffff,0x1c(%esp)
 300238a:	ff 
 300238b:	eb d5                	jmp    3002362 <_vfiprintf_r+0x1c2>
 300238d:	8d 76 00             	lea    0x0(%esi),%esi
 3002390:	89 f9                	mov    %edi,%ecx
 3002392:	2b 8c 24 88 00 00 00 	sub    0x88(%esp),%ecx
 3002399:	89 0c 24             	mov    %ecx,(%esp)
 300239c:	74 be                	je     300235c <_vfiprintf_r+0x1bc>
 300239e:	31 f6                	xor    %esi,%esi
 30023a0:	89 7c 24 04          	mov    %edi,0x4(%esp)
 30023a4:	89 f7                	mov    %esi,%edi
 30023a6:	8b b4 24 88 00 00 00 	mov    0x88(%esp),%esi
 30023ad:	eb 0b                	jmp    30023ba <_vfiprintf_r+0x21a>
 30023af:	90                   	nop
 30023b0:	47                   	inc    %edi
 30023b1:	39 3c 24             	cmp    %edi,(%esp)
 30023b4:	76 15                	jbe    30023cb <_vfiprintf_r+0x22b>
 30023b6:	0f be 04 3e          	movsbl (%esi,%edi,1),%eax
 30023ba:	52                   	push   %edx
 30023bb:	55                   	push   %ebp
 30023bc:	50                   	push   %eax
 30023bd:	53                   	push   %ebx
 30023be:	e8 11 0a 00 00       	call   3002dd4 <_fputc_r>
 30023c3:	83 c4 10             	add    $0x10,%esp
 30023c6:	40                   	inc    %eax
 30023c7:	75 e7                	jne    30023b0 <_vfiprintf_r+0x210>
 30023c9:	eb 91                	jmp    300235c <_vfiprintf_r+0x1bc>
 30023cb:	8b 7c 24 04          	mov    0x4(%esp),%edi
 30023cf:	8b 0c 24             	mov    (%esp),%ecx
 30023d2:	01 4c 24 1c          	add    %ecx,0x1c(%esp)
 30023d6:	e9 4f fe ff ff       	jmp    300222a <_vfiprintf_r+0x8a>
 30023db:	83 ec 0c             	sub    $0xc,%esp
 30023de:	53                   	push   %ebx
 30023df:	e8 c8 fc ff ff       	call   30020ac <__sinit>
 30023e4:	83 c4 10             	add    $0x10,%esp
 30023e7:	e9 d8 fd ff ff       	jmp    30021c4 <_vfiprintf_r+0x24>
 30023ec:	83 0c 24 10          	orl    $0x10,(%esp)
 30023f0:	89 d7                	mov    %edx,%edi
 30023f2:	e9 57 fe ff ff       	jmp    300224e <_vfiprintf_r+0xae>
 30023f7:	f7 de                	neg    %esi
 30023f9:	89 74 24 18          	mov    %esi,0x18(%esp)
 30023fd:	89 84 24 8c 00 00 00 	mov    %eax,0x8c(%esp)
 3002404:	83 0c 24 04          	orl    $0x4,(%esp)
 3002408:	89 d7                	mov    %edx,%edi
 300240a:	e9 3f fe ff ff       	jmp    300224e <_vfiprintf_r+0xae>
 300240f:	89 4c 24 10          	mov    %ecx,0x10(%esp)
 3002413:	89 94 24 88 00 00 00 	mov    %edx,0x88(%esp)
 300241a:	8b 84 24 8c 00 00 00 	mov    0x8c(%esp),%eax
 3002421:	8d 50 04             	lea    0x4(%eax),%edx
 3002424:	f6 04 24 10          	testb  $0x10,(%esp)
 3002428:	0f 85 4a 09 00 00    	jne    3002d78 <_vfiprintf_r+0xbd8>
 300242e:	8b 3c 24             	mov    (%esp),%edi
 3002431:	8b 84 24 8c 00 00 00 	mov    0x8c(%esp),%eax
 3002438:	f7 c7 40 00 00 00    	test   $0x40,%edi
 300243e:	0f 84 41 08 00 00    	je     3002c85 <_vfiprintf_r+0xae5>
 3002444:	0f bf 30             	movswl (%eax),%esi
 3002447:	89 f0                	mov    %esi,%eax
 3002449:	89 94 24 8c 00 00 00 	mov    %edx,0x8c(%esp)
 3002450:	85 c0                	test   %eax,%eax
 3002452:	0f 88 0f 02 00 00    	js     3002667 <_vfiprintf_r+0x4c7>
 3002458:	83 7c 24 10 ff       	cmpl   $0xffffffff,0x10(%esp)
 300245d:	0f 84 ea 00 00 00    	je     300254d <_vfiprintf_r+0x3ad>
 3002463:	b8 01 00 00 00       	mov    $0x1,%eax
 3002468:	89 f9                	mov    %edi,%ecx
 300246a:	80 e1 7f             	and    $0x7f,%cl
 300246d:	89 0c 24             	mov    %ecx,(%esp)
 3002470:	85 f6                	test   %esi,%esi
 3002472:	0f 85 19 04 00 00    	jne    3002891 <_vfiprintf_r+0x6f1>
 3002478:	8b 54 24 10          	mov    0x10(%esp),%edx
 300247c:	85 d2                	test   %edx,%edx
 300247e:	0f 85 36 08 00 00    	jne    3002cba <_vfiprintf_r+0xb1a>
 3002484:	85 c0                	test   %eax,%eax
 3002486:	0f 85 c1 07 00 00    	jne    3002c4d <_vfiprintf_r+0xaad>
 300248c:	83 e7 01             	and    $0x1,%edi
 300248f:	89 7c 24 14          	mov    %edi,0x14(%esp)
 3002493:	0f 84 c9 07 00 00    	je     3002c62 <_vfiprintf_r+0xac2>
 3002499:	c6 44 24 5f 30       	movb   $0x30,0x5f(%esp)
 300249e:	8d 44 24 5f          	lea    0x5f(%esp),%eax
 30024a2:	89 44 24 24          	mov    %eax,0x24(%esp)
 30024a6:	66 90                	xchg   %ax,%ax
 30024a8:	8b 44 24 14          	mov    0x14(%esp),%eax
 30024ac:	89 44 24 08          	mov    %eax,0x8(%esp)
 30024b0:	8b 4c 24 10          	mov    0x10(%esp),%ecx
 30024b4:	39 c8                	cmp    %ecx,%eax
 30024b6:	7d 04                	jge    30024bc <_vfiprintf_r+0x31c>
 30024b8:	89 4c 24 08          	mov    %ecx,0x8(%esp)
 30024bc:	80 7c 24 04 00       	cmpb   $0x0,0x4(%esp)
 30024c1:	0f 84 e2 05 00 00    	je     3002aa9 <_vfiprintf_r+0x909>
 30024c7:	ff 44 24 08          	incl   0x8(%esp)
 30024cb:	e9 f0 fd ff ff       	jmp    30022c0 <_vfiprintf_r+0x120>
 30024d0:	89 4c 24 10          	mov    %ecx,0x10(%esp)
 30024d4:	89 94 24 88 00 00 00 	mov    %edx,0x88(%esp)
 30024db:	8b 3c 24             	mov    (%esp),%edi
 30024de:	83 cf 10             	or     $0x10,%edi
 30024e1:	8b 84 24 8c 00 00 00 	mov    0x8c(%esp),%eax
 30024e8:	83 c0 04             	add    $0x4,%eax
 30024eb:	8b 8c 24 8c 00 00 00 	mov    0x8c(%esp),%ecx
 30024f2:	8b 31                	mov    (%ecx),%esi
 30024f4:	89 84 24 8c 00 00 00 	mov    %eax,0x8c(%esp)
 30024fb:	83 7c 24 10 ff       	cmpl   $0xffffffff,0x10(%esp)
 3002500:	0f 84 32 07 00 00    	je     3002c38 <_vfiprintf_r+0xa98>
 3002506:	c6 44 24 04 00       	movb   $0x0,0x4(%esp)
 300250b:	31 c0                	xor    %eax,%eax
 300250d:	e9 56 ff ff ff       	jmp    3002468 <_vfiprintf_r+0x2c8>
 3002512:	89 4c 24 10          	mov    %ecx,0x10(%esp)
 3002516:	89 94 24 88 00 00 00 	mov    %edx,0x88(%esp)
 300251d:	8b 3c 24             	mov    (%esp),%edi
 3002520:	83 cf 10             	or     $0x10,%edi
 3002523:	8b 84 24 8c 00 00 00 	mov    0x8c(%esp),%eax
 300252a:	83 c0 04             	add    $0x4,%eax
 300252d:	8b 8c 24 8c 00 00 00 	mov    0x8c(%esp),%ecx
 3002534:	8b 31                	mov    (%ecx),%esi
 3002536:	89 84 24 8c 00 00 00 	mov    %eax,0x8c(%esp)
 300253d:	c6 44 24 04 00       	movb   $0x0,0x4(%esp)
 3002542:	83 7c 24 10 ff       	cmpl   $0xffffffff,0x10(%esp)
 3002547:	0f 85 16 ff ff ff    	jne    3002463 <_vfiprintf_r+0x2c3>
 300254d:	83 fe 09             	cmp    $0x9,%esi
 3002550:	0f 87 02 06 00 00    	ja     3002b58 <_vfiprintf_r+0x9b8>
 3002556:	8d 46 30             	lea    0x30(%esi),%eax
 3002559:	88 44 24 5f          	mov    %al,0x5f(%esp)
 300255d:	89 3c 24             	mov    %edi,(%esp)
 3002560:	c7 44 24 14 01 00 00 	movl   $0x1,0x14(%esp)
 3002567:	00 
 3002568:	8d 44 24 5f          	lea    0x5f(%esp),%eax
 300256c:	89 44 24 24          	mov    %eax,0x24(%esp)
 3002570:	e9 33 ff ff ff       	jmp    30024a8 <_vfiprintf_r+0x308>
 3002575:	89 4c 24 10          	mov    %ecx,0x10(%esp)
 3002579:	89 94 24 88 00 00 00 	mov    %edx,0x88(%esp)
 3002580:	8b 84 24 8c 00 00 00 	mov    0x8c(%esp),%eax
 3002587:	8b 30                	mov    (%eax),%esi
 3002589:	8b 3c 24             	mov    (%esp),%edi
 300258c:	83 cf 02             	or     $0x2,%edi
 300258f:	83 c0 04             	add    $0x4,%eax
 3002592:	89 84 24 8c 00 00 00 	mov    %eax,0x8c(%esp)
 3002599:	c6 44 24 2f 78       	movb   $0x78,0x2f(%esp)
 300259e:	c7 44 24 28 d0 60 00 	movl   $0x30060d0,0x28(%esp)
 30025a5:	03 
 30025a6:	83 7c 24 10 ff       	cmpl   $0xffffffff,0x10(%esp)
 30025ab:	0f 84 0d 06 00 00    	je     3002bbe <_vfiprintf_r+0xa1e>
 30025b1:	c6 44 24 04 00       	movb   $0x0,0x4(%esp)
 30025b6:	b8 02 00 00 00       	mov    $0x2,%eax
 30025bb:	e9 a8 fe ff ff       	jmp    3002468 <_vfiprintf_r+0x2c8>
 30025c0:	89 4c 24 10          	mov    %ecx,0x10(%esp)
 30025c4:	89 94 24 88 00 00 00 	mov    %edx,0x88(%esp)
 30025cb:	8b 84 24 8c 00 00 00 	mov    0x8c(%esp),%eax
 30025d2:	8d 70 04             	lea    0x4(%eax),%esi
 30025d5:	8b 00                	mov    (%eax),%eax
 30025d7:	89 44 24 24          	mov    %eax,0x24(%esp)
 30025db:	85 c0                	test   %eax,%eax
 30025dd:	0f 84 e8 06 00 00    	je     3002ccb <_vfiprintf_r+0xb2b>
 30025e3:	8b 44 24 10          	mov    0x10(%esp),%eax
 30025e7:	83 f8 ff             	cmp    $0xffffffff,%eax
 30025ea:	0f 84 54 07 00 00    	je     3002d44 <_vfiprintf_r+0xba4>
 30025f0:	51                   	push   %ecx
 30025f1:	50                   	push   %eax
 30025f2:	6a 00                	push   $0x0
 30025f4:	8b 7c 24 30          	mov    0x30(%esp),%edi
 30025f8:	57                   	push   %edi
 30025f9:	e8 22 17 00 00       	call   3003d20 <memchr>
 30025fe:	83 c4 10             	add    $0x10,%esp
 3002601:	85 c0                	test   %eax,%eax
 3002603:	0f 84 16 07 00 00    	je     3002d1f <_vfiprintf_r+0xb7f>
 3002609:	29 f8                	sub    %edi,%eax
 300260b:	89 44 24 14          	mov    %eax,0x14(%esp)
 300260f:	89 44 24 08          	mov    %eax,0x8(%esp)
 3002613:	0f 88 4a 07 00 00    	js     3002d63 <_vfiprintf_r+0xbc3>
 3002619:	89 b4 24 8c 00 00 00 	mov    %esi,0x8c(%esp)
 3002620:	c6 44 24 04 00       	movb   $0x0,0x4(%esp)
 3002625:	c7 44 24 10 00 00 00 	movl   $0x0,0x10(%esp)
 300262c:	00 
 300262d:	e9 8e fc ff ff       	jmp    30022c0 <_vfiprintf_r+0x120>
 3002632:	89 4c 24 10          	mov    %ecx,0x10(%esp)
 3002636:	89 94 24 88 00 00 00 	mov    %edx,0x88(%esp)
 300263d:	8b 3c 24             	mov    (%esp),%edi
 3002640:	83 cf 10             	or     $0x10,%edi
 3002643:	8b 84 24 8c 00 00 00 	mov    0x8c(%esp),%eax
 300264a:	8d 50 04             	lea    0x4(%eax),%edx
 300264d:	8b 84 24 8c 00 00 00 	mov    0x8c(%esp),%eax
 3002654:	8b 00                	mov    (%eax),%eax
 3002656:	89 c6                	mov    %eax,%esi
 3002658:	89 94 24 8c 00 00 00 	mov    %edx,0x8c(%esp)
 300265f:	85 c0                	test   %eax,%eax
 3002661:	0f 89 f1 fd ff ff    	jns    3002458 <_vfiprintf_r+0x2b8>
 3002667:	f7 de                	neg    %esi
 3002669:	89 3c 24             	mov    %edi,(%esp)
 300266c:	c6 44 24 04 2d       	movb   $0x2d,0x4(%esp)
 3002671:	b8 01 00 00 00       	mov    $0x1,%eax
 3002676:	e9 08 02 00 00       	jmp    3002883 <_vfiprintf_r+0x6e3>
 300267b:	89 4c 24 10          	mov    %ecx,0x10(%esp)
 300267f:	89 94 24 88 00 00 00 	mov    %edx,0x88(%esp)
 3002686:	8b 84 24 8c 00 00 00 	mov    0x8c(%esp),%eax
 300268d:	83 c0 04             	add    $0x4,%eax
 3002690:	f6 04 24 10          	testb  $0x10,(%esp)
 3002694:	0f 85 d6 06 00 00    	jne    3002d70 <_vfiprintf_r+0xbd0>
 300269a:	8b 3c 24             	mov    (%esp),%edi
 300269d:	8b 8c 24 8c 00 00 00 	mov    0x8c(%esp),%ecx
 30026a4:	f7 c7 40 00 00 00    	test   $0x40,%edi
 30026aa:	0f 84 bf 05 00 00    	je     3002c6f <_vfiprintf_r+0xacf>
 30026b0:	0f b7 31             	movzwl (%ecx),%esi
 30026b3:	89 84 24 8c 00 00 00 	mov    %eax,0x8c(%esp)
 30026ba:	c6 44 24 04 00       	movb   $0x0,0x4(%esp)
 30026bf:	e9 94 fd ff ff       	jmp    3002458 <_vfiprintf_r+0x2b8>
 30026c4:	81 0c 24 80 00 00 00 	orl    $0x80,(%esp)
 30026cb:	89 d7                	mov    %edx,%edi
 30026cd:	e9 7c fb ff ff       	jmp    300224e <_vfiprintf_r+0xae>
 30026d2:	80 7c 24 04 00       	cmpb   $0x0,0x4(%esp)
 30026d7:	0f 85 13 fd ff ff    	jne    30023f0 <_vfiprintf_r+0x250>
 30026dd:	c6 44 24 04 20       	movb   $0x20,0x4(%esp)
 30026e2:	89 d7                	mov    %edx,%edi
 30026e4:	e9 65 fb ff ff       	jmp    300224e <_vfiprintf_r+0xae>
 30026e9:	83 0c 24 01          	orl    $0x1,(%esp)
 30026ed:	89 d7                	mov    %edx,%edi
 30026ef:	e9 5a fb ff ff       	jmp    300224e <_vfiprintf_r+0xae>
 30026f4:	8b 84 24 8c 00 00 00 	mov    0x8c(%esp),%eax
 30026fb:	83 c0 04             	add    $0x4,%eax
 30026fe:	8b b4 24 8c 00 00 00 	mov    0x8c(%esp),%esi
 3002705:	8b 36                	mov    (%esi),%esi
 3002707:	89 74 24 18          	mov    %esi,0x18(%esp)
 300270b:	85 f6                	test   %esi,%esi
 300270d:	0f 88 e4 fc ff ff    	js     30023f7 <_vfiprintf_r+0x257>
 3002713:	89 84 24 8c 00 00 00 	mov    %eax,0x8c(%esp)
 300271a:	89 d7                	mov    %edx,%edi
 300271c:	e9 2d fb ff ff       	jmp    300224e <_vfiprintf_r+0xae>
 3002721:	89 4c 24 10          	mov    %ecx,0x10(%esp)
 3002725:	89 94 24 88 00 00 00 	mov    %edx,0x88(%esp)
 300272c:	8b 84 24 8c 00 00 00 	mov    0x8c(%esp),%eax
 3002733:	83 c0 04             	add    $0x4,%eax
 3002736:	f6 04 24 10          	testb  $0x10,(%esp)
 300273a:	0f 85 40 06 00 00    	jne    3002d80 <_vfiprintf_r+0xbe0>
 3002740:	8b 3c 24             	mov    (%esp),%edi
 3002743:	8b 8c 24 8c 00 00 00 	mov    0x8c(%esp),%ecx
 300274a:	f7 c7 40 00 00 00    	test   $0x40,%edi
 3002750:	0f 84 42 05 00 00    	je     3002c98 <_vfiprintf_r+0xaf8>
 3002756:	0f b7 31             	movzwl (%ecx),%esi
 3002759:	89 84 24 8c 00 00 00 	mov    %eax,0x8c(%esp)
 3002760:	e9 96 fd ff ff       	jmp    30024fb <_vfiprintf_r+0x35b>
 3002765:	8d 7a 01             	lea    0x1(%edx),%edi
 3002768:	0f be 02             	movsbl (%edx),%eax
 300276b:	83 f8 2a             	cmp    $0x2a,%eax
 300276e:	0f 84 14 06 00 00    	je     3002d88 <_vfiprintf_r+0xbe8>
 3002774:	8d 70 d0             	lea    -0x30(%eax),%esi
 3002777:	89 fa                	mov    %edi,%edx
 3002779:	31 c9                	xor    %ecx,%ecx
 300277b:	83 fe 09             	cmp    $0x9,%esi
 300277e:	0f 87 d0 fa ff ff    	ja     3002254 <_vfiprintf_r+0xb4>
 3002784:	8d 0c 89             	lea    (%ecx,%ecx,4),%ecx
 3002787:	01 c9                	add    %ecx,%ecx
 3002789:	01 f1                	add    %esi,%ecx
 300278b:	42                   	inc    %edx
 300278c:	0f be 42 ff          	movsbl -0x1(%edx),%eax
 3002790:	8d 70 d0             	lea    -0x30(%eax),%esi
 3002793:	83 fe 09             	cmp    $0x9,%esi
 3002796:	76 ec                	jbe    3002784 <_vfiprintf_r+0x5e4>
 3002798:	e9 b7 fa ff ff       	jmp    3002254 <_vfiprintf_r+0xb4>
 300279d:	83 0c 24 40          	orl    $0x40,(%esp)
 30027a1:	89 d7                	mov    %edx,%edi
 30027a3:	e9 a6 fa ff ff       	jmp    300224e <_vfiprintf_r+0xae>
 30027a8:	89 94 24 88 00 00 00 	mov    %edx,0x88(%esp)
 30027af:	8b 84 24 8c 00 00 00 	mov    0x8c(%esp),%eax
 30027b6:	8b 00                	mov    (%eax),%eax
 30027b8:	83 84 24 8c 00 00 00 	addl   $0x4,0x8c(%esp)
 30027bf:	04 
 30027c0:	f6 04 24 10          	testb  $0x10,(%esp)
 30027c4:	75 3c                	jne    3002802 <_vfiprintf_r+0x662>
 30027c6:	f6 04 24 40          	testb  $0x40,(%esp)
 30027ca:	74 36                	je     3002802 <_vfiprintf_r+0x662>
 30027cc:	8b 4c 24 1c          	mov    0x1c(%esp),%ecx
 30027d0:	66 89 08             	mov    %cx,(%eax)
 30027d3:	e9 11 fa ff ff       	jmp    30021e9 <_vfiprintf_r+0x49>
 30027d8:	89 94 24 88 00 00 00 	mov    %edx,0x88(%esp)
 30027df:	8b 84 24 8c 00 00 00 	mov    0x8c(%esp),%eax
 30027e6:	8b 00                	mov    (%eax),%eax
 30027e8:	88 44 24 38          	mov    %al,0x38(%esp)
 30027ec:	8b 84 24 8c 00 00 00 	mov    0x8c(%esp),%eax
 30027f3:	83 c0 04             	add    $0x4,%eax
 30027f6:	89 84 24 8c 00 00 00 	mov    %eax,0x8c(%esp)
 30027fd:	e9 99 fa ff ff       	jmp    300229b <_vfiprintf_r+0xfb>
 3002802:	8b 4c 24 1c          	mov    0x1c(%esp),%ecx
 3002806:	89 08                	mov    %ecx,(%eax)
 3002808:	e9 dc f9 ff ff       	jmp    30021e9 <_vfiprintf_r+0x49>
 300280d:	c6 44 24 04 2b       	movb   $0x2b,0x4(%esp)
 3002812:	89 d7                	mov    %edx,%edi
 3002814:	e9 35 fa ff ff       	jmp    300224e <_vfiprintf_r+0xae>
 3002819:	89 4c 24 10          	mov    %ecx,0x10(%esp)
 300281d:	89 94 24 88 00 00 00 	mov    %edx,0x88(%esp)
 3002824:	c7 44 24 28 d0 60 00 	movl   $0x30060d0,0x28(%esp)
 300282b:	03 
 300282c:	8b 8c 24 8c 00 00 00 	mov    0x8c(%esp),%ecx
 3002833:	8d 51 04             	lea    0x4(%ecx),%edx
 3002836:	f6 04 24 10          	testb  $0x10,(%esp)
 300283a:	0f 85 5b 03 00 00    	jne    3002b9b <_vfiprintf_r+0x9fb>
 3002840:	8b 8c 24 8c 00 00 00 	mov    0x8c(%esp),%ecx
 3002847:	f6 04 24 40          	testb  $0x40,(%esp)
 300284b:	0f 84 4a 03 00 00    	je     3002b9b <_vfiprintf_r+0x9fb>
 3002851:	0f b7 31             	movzwl (%ecx),%esi
 3002854:	8b 0c 24             	mov    (%esp),%ecx
 3002857:	f6 c1 01             	test   $0x1,%cl
 300285a:	0f 84 49 03 00 00    	je     3002ba9 <_vfiprintf_r+0xa09>
 3002860:	85 f6                	test   %esi,%esi
 3002862:	0f 84 0c 02 00 00    	je     3002a74 <_vfiprintf_r+0x8d4>
 3002868:	88 44 24 2f          	mov    %al,0x2f(%esp)
 300286c:	83 c9 02             	or     $0x2,%ecx
 300286f:	89 0c 24             	mov    %ecx,(%esp)
 3002872:	89 94 24 8c 00 00 00 	mov    %edx,0x8c(%esp)
 3002879:	c6 44 24 04 00       	movb   $0x0,0x4(%esp)
 300287e:	b8 02 00 00 00       	mov    $0x2,%eax
 3002883:	83 7c 24 10 ff       	cmpl   $0xffffffff,0x10(%esp)
 3002888:	74 07                	je     3002891 <_vfiprintf_r+0x6f1>
 300288a:	81 24 24 7f ff ff ff 	andl   $0xffffff7f,(%esp)
 3002891:	83 f8 01             	cmp    $0x1,%eax
 3002894:	0f 84 ab 03 00 00    	je     3002c45 <_vfiprintf_r+0xaa5>
 300289a:	83 f8 02             	cmp    $0x2,%eax
 300289d:	0f 84 1c 02 00 00    	je     3002abf <_vfiprintf_r+0x91f>
 30028a3:	8d 44 24 60          	lea    0x60(%esp),%eax
 30028a7:	89 c1                	mov    %eax,%ecx
 30028a9:	8d 76 00             	lea    0x0(%esi),%esi
 30028ac:	89 ca                	mov    %ecx,%edx
 30028ae:	49                   	dec    %ecx
 30028af:	89 f0                	mov    %esi,%eax
 30028b1:	83 e0 07             	and    $0x7,%eax
 30028b4:	83 c0 30             	add    $0x30,%eax
 30028b7:	88 01                	mov    %al,(%ecx)
 30028b9:	c1 ee 03             	shr    $0x3,%esi
 30028bc:	75 ee                	jne    30028ac <_vfiprintf_r+0x70c>
 30028be:	89 4c 24 24          	mov    %ecx,0x24(%esp)
 30028c2:	f6 04 24 01          	testb  $0x1,(%esp)
 30028c6:	0f 84 c0 02 00 00    	je     3002b8c <_vfiprintf_r+0x9ec>
 30028cc:	3c 30                	cmp    $0x30,%al
 30028ce:	0f 84 d5 03 00 00    	je     3002ca9 <_vfiprintf_r+0xb09>
 30028d4:	83 ea 02             	sub    $0x2,%edx
 30028d7:	8b 44 24 24          	mov    0x24(%esp),%eax
 30028db:	c6 40 ff 30          	movb   $0x30,-0x1(%eax)
 30028df:	8d 44 24 60          	lea    0x60(%esp),%eax
 30028e3:	29 d0                	sub    %edx,%eax
 30028e5:	89 44 24 14          	mov    %eax,0x14(%esp)
 30028e9:	89 54 24 24          	mov    %edx,0x24(%esp)
 30028ed:	e9 b6 fb ff ff       	jmp    30024a8 <_vfiprintf_r+0x308>
 30028f2:	66 90                	xchg   %ax,%ax
 30028f4:	83 ee 10             	sub    $0x10,%esi
 30028f7:	83 fe 10             	cmp    $0x10,%esi
 30028fa:	0f 8f 30 fa ff ff    	jg     3002330 <_vfiprintf_r+0x190>
 3002900:	b8 30 00 00 00       	mov    $0x30,%eax
 3002905:	31 ff                	xor    %edi,%edi
 3002907:	eb 13                	jmp    300291c <_vfiprintf_r+0x77c>
 3002909:	8d 76 00             	lea    0x0(%esi),%esi
 300290c:	47                   	inc    %edi
 300290d:	39 fe                	cmp    %edi,%esi
 300290f:	0f 84 c3 00 00 00    	je     30029d8 <_vfiprintf_r+0x838>
 3002915:	0f be 87 d0 63 00 03 	movsbl 0x30063d0(%edi),%eax
 300291c:	52                   	push   %edx
 300291d:	55                   	push   %ebp
 300291e:	50                   	push   %eax
 300291f:	53                   	push   %ebx
 3002920:	e8 af 04 00 00       	call   3002dd4 <_fputc_r>
 3002925:	83 c4 10             	add    $0x10,%esp
 3002928:	40                   	inc    %eax
 3002929:	75 e1                	jne    300290c <_vfiprintf_r+0x76c>
 300292b:	e9 2c fa ff ff       	jmp    300235c <_vfiprintf_r+0x1bc>
 3002930:	50                   	push   %eax
 3002931:	55                   	push   %ebp
 3002932:	0f be 44 24 0c       	movsbl 0xc(%esp),%eax
 3002937:	50                   	push   %eax
 3002938:	53                   	push   %ebx
 3002939:	e8 96 04 00 00       	call   3002dd4 <_fputc_r>
 300293e:	83 c4 10             	add    $0x10,%esp
 3002941:	40                   	inc    %eax
 3002942:	0f 84 14 fa ff ff    	je     300235c <_vfiprintf_r+0x1bc>
 3002948:	8b 44 24 0c          	mov    0xc(%esp),%eax
 300294c:	85 c0                	test   %eax,%eax
 300294e:	0f 84 b2 f9 ff ff    	je     3002306 <_vfiprintf_r+0x166>
 3002954:	57                   	push   %edi
 3002955:	55                   	push   %ebp
 3002956:	6a 30                	push   $0x30
 3002958:	53                   	push   %ebx
 3002959:	e8 76 04 00 00       	call   3002dd4 <_fputc_r>
 300295e:	83 c4 10             	add    $0x10,%esp
 3002961:	40                   	inc    %eax
 3002962:	0f 84 f4 f9 ff ff    	je     300235c <_vfiprintf_r+0x1bc>
 3002968:	56                   	push   %esi
 3002969:	55                   	push   %ebp
 300296a:	0f be 44 24 37       	movsbl 0x37(%esp),%eax
 300296f:	50                   	push   %eax
 3002970:	53                   	push   %ebx
 3002971:	e8 5e 04 00 00       	call   3002dd4 <_fputc_r>
 3002976:	83 c4 10             	add    $0x10,%esp
 3002979:	40                   	inc    %eax
 300297a:	0f 84 dc f9 ff ff    	je     300235c <_vfiprintf_r+0x1bc>
 3002980:	81 7c 24 20 80 00 00 	cmpl   $0x80,0x20(%esp)
 3002987:	00 
 3002988:	0f 85 86 f9 ff ff    	jne    3002314 <_vfiprintf_r+0x174>
 300298e:	8b 74 24 18          	mov    0x18(%esp),%esi
 3002992:	2b 74 24 08          	sub    0x8(%esp),%esi
 3002996:	85 f6                	test   %esi,%esi
 3002998:	0f 8e 76 f9 ff ff    	jle    3002314 <_vfiprintf_r+0x174>
 300299e:	83 fe 10             	cmp    $0x10,%esi
 30029a1:	0f 8e 9d 00 00 00    	jle    3002a44 <_vfiprintf_r+0x8a4>
 30029a7:	90                   	nop
 30029a8:	b8 30 00 00 00       	mov    $0x30,%eax
 30029ad:	31 ff                	xor    %edi,%edi
 30029af:	eb 10                	jmp    30029c1 <_vfiprintf_r+0x821>
 30029b1:	8d 76 00             	lea    0x0(%esi),%esi
 30029b4:	47                   	inc    %edi
 30029b5:	83 ff 10             	cmp    $0x10,%edi
 30029b8:	74 7e                	je     3002a38 <_vfiprintf_r+0x898>
 30029ba:	0f be 87 d0 63 00 03 	movsbl 0x30063d0(%edi),%eax
 30029c1:	51                   	push   %ecx
 30029c2:	55                   	push   %ebp
 30029c3:	50                   	push   %eax
 30029c4:	53                   	push   %ebx
 30029c5:	e8 0a 04 00 00       	call   3002dd4 <_fputc_r>
 30029ca:	83 c4 10             	add    $0x10,%esp
 30029cd:	40                   	inc    %eax
 30029ce:	75 e4                	jne    30029b4 <_vfiprintf_r+0x814>
 30029d0:	e9 87 f9 ff ff       	jmp    300235c <_vfiprintf_r+0x1bc>
 30029d5:	8d 76 00             	lea    0x0(%esi),%esi
 30029d8:	8b 44 24 14          	mov    0x14(%esp),%eax
 30029dc:	85 c0                	test   %eax,%eax
 30029de:	74 28                	je     3002a08 <_vfiprintf_r+0x868>
 30029e0:	8b 7c 24 24          	mov    0x24(%esp),%edi
 30029e4:	01 f8                	add    %edi,%eax
 30029e6:	89 c6                	mov    %eax,%esi
 30029e8:	eb 07                	jmp    30029f1 <_vfiprintf_r+0x851>
 30029ea:	66 90                	xchg   %ax,%ax
 30029ec:	47                   	inc    %edi
 30029ed:	39 f7                	cmp    %esi,%edi
 30029ef:	74 17                	je     3002a08 <_vfiprintf_r+0x868>
 30029f1:	50                   	push   %eax
 30029f2:	55                   	push   %ebp
 30029f3:	0f be 07             	movsbl (%edi),%eax
 30029f6:	50                   	push   %eax
 30029f7:	53                   	push   %ebx
 30029f8:	e8 d7 03 00 00       	call   3002dd4 <_fputc_r>
 30029fd:	83 c4 10             	add    $0x10,%esp
 3002a00:	40                   	inc    %eax
 3002a01:	75 e9                	jne    30029ec <_vfiprintf_r+0x84c>
 3002a03:	e9 54 f9 ff ff       	jmp    300235c <_vfiprintf_r+0x1bc>
 3002a08:	f6 04 24 04          	testb  $0x4,(%esp)
 3002a0c:	74 10                	je     3002a1e <_vfiprintf_r+0x87e>
 3002a0e:	8b 74 24 18          	mov    0x18(%esp),%esi
 3002a12:	2b 74 24 08          	sub    0x8(%esp),%esi
 3002a16:	85 f6                	test   %esi,%esi
 3002a18:	0f 8f ad 01 00 00    	jg     3002bcb <_vfiprintf_r+0xa2b>
 3002a1e:	8b 44 24 18          	mov    0x18(%esp),%eax
 3002a22:	8b 4c 24 08          	mov    0x8(%esp),%ecx
 3002a26:	39 c8                	cmp    %ecx,%eax
 3002a28:	7d 02                	jge    3002a2c <_vfiprintf_r+0x88c>
 3002a2a:	89 c8                	mov    %ecx,%eax
 3002a2c:	01 44 24 1c          	add    %eax,0x1c(%esp)
 3002a30:	e9 b4 f7 ff ff       	jmp    30021e9 <_vfiprintf_r+0x49>
 3002a35:	8d 76 00             	lea    0x0(%esi),%esi
 3002a38:	83 ee 10             	sub    $0x10,%esi
 3002a3b:	83 fe 10             	cmp    $0x10,%esi
 3002a3e:	0f 8f 64 ff ff ff    	jg     30029a8 <_vfiprintf_r+0x808>
 3002a44:	b8 30 00 00 00       	mov    $0x30,%eax
 3002a49:	31 ff                	xor    %edi,%edi
 3002a4b:	eb 13                	jmp    3002a60 <_vfiprintf_r+0x8c0>
 3002a4d:	8d 76 00             	lea    0x0(%esi),%esi
 3002a50:	47                   	inc    %edi
 3002a51:	39 f7                	cmp    %esi,%edi
 3002a53:	0f 84 bb f8 ff ff    	je     3002314 <_vfiprintf_r+0x174>
 3002a59:	0f be 87 d0 63 00 03 	movsbl 0x30063d0(%edi),%eax
 3002a60:	52                   	push   %edx
 3002a61:	55                   	push   %ebp
 3002a62:	50                   	push   %eax
 3002a63:	53                   	push   %ebx
 3002a64:	e8 6b 03 00 00       	call   3002dd4 <_fputc_r>
 3002a69:	83 c4 10             	add    $0x10,%esp
 3002a6c:	40                   	inc    %eax
 3002a6d:	75 e1                	jne    3002a50 <_vfiprintf_r+0x8b0>
 3002a6f:	e9 e8 f8 ff ff       	jmp    300235c <_vfiprintf_r+0x1bc>
 3002a74:	83 7c 24 10 ff       	cmpl   $0xffffffff,0x10(%esp)
 3002a79:	74 38                	je     3002ab3 <_vfiprintf_r+0x913>
 3002a7b:	81 24 24 7f ff ff ff 	andl   $0xffffff7f,(%esp)
 3002a82:	8b 44 24 10          	mov    0x10(%esp),%eax
 3002a86:	85 c0                	test   %eax,%eax
 3002a88:	75 29                	jne    3002ab3 <_vfiprintf_r+0x913>
 3002a8a:	c7 44 24 14 00 00 00 	movl   $0x0,0x14(%esp)
 3002a91:	00 
 3002a92:	89 94 24 8c 00 00 00 	mov    %edx,0x8c(%esp)
 3002a99:	c7 44 24 08 00 00 00 	movl   $0x0,0x8(%esp)
 3002aa0:	00 
 3002aa1:	8d 44 24 60          	lea    0x60(%esp),%eax
 3002aa5:	89 44 24 24          	mov    %eax,0x24(%esp)
 3002aa9:	c6 44 24 04 00       	movb   $0x0,0x4(%esp)
 3002aae:	e9 0d f8 ff ff       	jmp    30022c0 <_vfiprintf_r+0x120>
 3002ab3:	89 94 24 8c 00 00 00 	mov    %edx,0x8c(%esp)
 3002aba:	c6 44 24 04 00       	movb   $0x0,0x4(%esp)
 3002abf:	8d 44 24 60          	lea    0x60(%esp),%eax
 3002ac3:	8b 4c 24 28          	mov    0x28(%esp),%ecx
 3002ac7:	90                   	nop
 3002ac8:	48                   	dec    %eax
 3002ac9:	89 f2                	mov    %esi,%edx
 3002acb:	83 e2 0f             	and    $0xf,%edx
 3002ace:	8a 14 11             	mov    (%ecx,%edx,1),%dl
 3002ad1:	88 10                	mov    %dl,(%eax)
 3002ad3:	c1 ee 04             	shr    $0x4,%esi
 3002ad6:	75 f0                	jne    3002ac8 <_vfiprintf_r+0x928>
 3002ad8:	89 44 24 24          	mov    %eax,0x24(%esp)
 3002adc:	8d 4c 24 60          	lea    0x60(%esp),%ecx
 3002ae0:	29 c1                	sub    %eax,%ecx
 3002ae2:	89 4c 24 14          	mov    %ecx,0x14(%esp)
 3002ae6:	e9 bd f9 ff ff       	jmp    30024a8 <_vfiprintf_r+0x308>
 3002aeb:	83 fe 10             	cmp    $0x10,%esi
 3002aee:	7e 38                	jle    3002b28 <_vfiprintf_r+0x988>
 3002af0:	31 ff                	xor    %edi,%edi
 3002af2:	b8 20 00 00 00       	mov    $0x20,%eax
 3002af7:	eb 10                	jmp    3002b09 <_vfiprintf_r+0x969>
 3002af9:	8d 76 00             	lea    0x0(%esi),%esi
 3002afc:	47                   	inc    %edi
 3002afd:	83 ff 10             	cmp    $0x10,%edi
 3002b00:	74 1e                	je     3002b20 <_vfiprintf_r+0x980>
 3002b02:	0f be 87 e0 63 00 03 	movsbl 0x30063e0(%edi),%eax
 3002b09:	51                   	push   %ecx
 3002b0a:	55                   	push   %ebp
 3002b0b:	50                   	push   %eax
 3002b0c:	53                   	push   %ebx
 3002b0d:	e8 c2 02 00 00       	call   3002dd4 <_fputc_r>
 3002b12:	83 c4 10             	add    $0x10,%esp
 3002b15:	40                   	inc    %eax
 3002b16:	75 e4                	jne    3002afc <_vfiprintf_r+0x95c>
 3002b18:	e9 3f f8 ff ff       	jmp    300235c <_vfiprintf_r+0x1bc>
 3002b1d:	8d 76 00             	lea    0x0(%esi),%esi
 3002b20:	83 ee 10             	sub    $0x10,%esi
 3002b23:	83 fe 10             	cmp    $0x10,%esi
 3002b26:	7f c8                	jg     3002af0 <_vfiprintf_r+0x950>
 3002b28:	31 d2                	xor    %edx,%edx
 3002b2a:	b8 20 00 00 00       	mov    $0x20,%eax
 3002b2f:	89 d7                	mov    %edx,%edi
 3002b31:	eb 11                	jmp    3002b44 <_vfiprintf_r+0x9a4>
 3002b33:	90                   	nop
 3002b34:	47                   	inc    %edi
 3002b35:	39 fe                	cmp    %edi,%esi
 3002b37:	0f 84 b2 f7 ff ff    	je     30022ef <_vfiprintf_r+0x14f>
 3002b3d:	0f be 87 e0 63 00 03 	movsbl 0x30063e0(%edi),%eax
 3002b44:	52                   	push   %edx
 3002b45:	55                   	push   %ebp
 3002b46:	50                   	push   %eax
 3002b47:	53                   	push   %ebx
 3002b48:	e8 87 02 00 00       	call   3002dd4 <_fputc_r>
 3002b4d:	83 c4 10             	add    $0x10,%esp
 3002b50:	40                   	inc    %eax
 3002b51:	75 e1                	jne    3002b34 <_vfiprintf_r+0x994>
 3002b53:	e9 04 f8 ff ff       	jmp    300235c <_vfiprintf_r+0x1bc>
 3002b58:	8d 44 24 60          	lea    0x60(%esp),%eax
 3002b5c:	89 c1                	mov    %eax,%ecx
 3002b5e:	89 3c 24             	mov    %edi,(%esp)
 3002b61:	8d 76 00             	lea    0x0(%esi),%esi
 3002b64:	49                   	dec    %ecx
 3002b65:	89 f0                	mov    %esi,%eax
 3002b67:	bf 0a 00 00 00       	mov    $0xa,%edi
 3002b6c:	31 d2                	xor    %edx,%edx
 3002b6e:	f7 f7                	div    %edi
 3002b70:	83 c2 30             	add    $0x30,%edx
 3002b73:	88 11                	mov    %dl,(%ecx)
 3002b75:	89 f7                	mov    %esi,%edi
 3002b77:	b8 cd cc cc cc       	mov    $0xcccccccd,%eax
 3002b7c:	f7 e6                	mul    %esi
 3002b7e:	89 d6                	mov    %edx,%esi
 3002b80:	c1 ee 03             	shr    $0x3,%esi
 3002b83:	83 ff 09             	cmp    $0x9,%edi
 3002b86:	77 dc                	ja     3002b64 <_vfiprintf_r+0x9c4>
 3002b88:	89 4c 24 24          	mov    %ecx,0x24(%esp)
 3002b8c:	8d 44 24 60          	lea    0x60(%esp),%eax
 3002b90:	29 c8                	sub    %ecx,%eax
 3002b92:	89 44 24 14          	mov    %eax,0x14(%esp)
 3002b96:	e9 0d f9 ff ff       	jmp    30024a8 <_vfiprintf_r+0x308>
 3002b9b:	8b 31                	mov    (%ecx),%esi
 3002b9d:	8b 0c 24             	mov    (%esp),%ecx
 3002ba0:	f6 c1 01             	test   $0x1,%cl
 3002ba3:	0f 85 b7 fc ff ff    	jne    3002860 <_vfiprintf_r+0x6c0>
 3002ba9:	89 94 24 8c 00 00 00 	mov    %edx,0x8c(%esp)
 3002bb0:	8b 3c 24             	mov    (%esp),%edi
 3002bb3:	83 7c 24 10 ff       	cmpl   $0xffffffff,0x10(%esp)
 3002bb8:	0f 85 f3 f9 ff ff    	jne    30025b1 <_vfiprintf_r+0x411>
 3002bbe:	89 3c 24             	mov    %edi,(%esp)
 3002bc1:	c6 44 24 04 00       	movb   $0x0,0x4(%esp)
 3002bc6:	e9 f4 fe ff ff       	jmp    3002abf <_vfiprintf_r+0x91f>
 3002bcb:	83 fe 10             	cmp    $0x10,%esi
 3002bce:	7e 38                	jle    3002c08 <_vfiprintf_r+0xa68>
 3002bd0:	b8 20 00 00 00       	mov    $0x20,%eax
 3002bd5:	31 ff                	xor    %edi,%edi
 3002bd7:	eb 10                	jmp    3002be9 <_vfiprintf_r+0xa49>
 3002bd9:	8d 76 00             	lea    0x0(%esi),%esi
 3002bdc:	47                   	inc    %edi
 3002bdd:	83 ff 10             	cmp    $0x10,%edi
 3002be0:	74 1e                	je     3002c00 <_vfiprintf_r+0xa60>
 3002be2:	0f be 87 e0 63 00 03 	movsbl 0x30063e0(%edi),%eax
 3002be9:	51                   	push   %ecx
 3002bea:	55                   	push   %ebp
 3002beb:	50                   	push   %eax
 3002bec:	53                   	push   %ebx
 3002bed:	e8 e2 01 00 00       	call   3002dd4 <_fputc_r>
 3002bf2:	83 c4 10             	add    $0x10,%esp
 3002bf5:	40                   	inc    %eax
 3002bf6:	75 e4                	jne    3002bdc <_vfiprintf_r+0xa3c>
 3002bf8:	e9 5f f7 ff ff       	jmp    300235c <_vfiprintf_r+0x1bc>
 3002bfd:	8d 76 00             	lea    0x0(%esi),%esi
 3002c00:	83 ee 10             	sub    $0x10,%esi
 3002c03:	83 fe 10             	cmp    $0x10,%esi
 3002c06:	7f c8                	jg     3002bd0 <_vfiprintf_r+0xa30>
 3002c08:	b8 20 00 00 00       	mov    $0x20,%eax
 3002c0d:	31 ff                	xor    %edi,%edi
 3002c0f:	eb 13                	jmp    3002c24 <_vfiprintf_r+0xa84>
 3002c11:	8d 76 00             	lea    0x0(%esi),%esi
 3002c14:	47                   	inc    %edi
 3002c15:	39 f7                	cmp    %esi,%edi
 3002c17:	0f 84 01 fe ff ff    	je     3002a1e <_vfiprintf_r+0x87e>
 3002c1d:	0f be 87 e0 63 00 03 	movsbl 0x30063e0(%edi),%eax
 3002c24:	52                   	push   %edx
 3002c25:	55                   	push   %ebp
 3002c26:	50                   	push   %eax
 3002c27:	53                   	push   %ebx
 3002c28:	e8 a7 01 00 00       	call   3002dd4 <_fputc_r>
 3002c2d:	83 c4 10             	add    $0x10,%esp
 3002c30:	40                   	inc    %eax
 3002c31:	75 e1                	jne    3002c14 <_vfiprintf_r+0xa74>
 3002c33:	e9 24 f7 ff ff       	jmp    300235c <_vfiprintf_r+0x1bc>
 3002c38:	89 3c 24             	mov    %edi,(%esp)
 3002c3b:	c6 44 24 04 00       	movb   $0x0,0x4(%esp)
 3002c40:	e9 5e fc ff ff       	jmp    30028a3 <_vfiprintf_r+0x703>
 3002c45:	8b 3c 24             	mov    (%esp),%edi
 3002c48:	e9 00 f9 ff ff       	jmp    300254d <_vfiprintf_r+0x3ad>
 3002c4d:	c7 44 24 14 00 00 00 	movl   $0x0,0x14(%esp)
 3002c54:	00 
 3002c55:	8d 44 24 60          	lea    0x60(%esp),%eax
 3002c59:	89 44 24 24          	mov    %eax,0x24(%esp)
 3002c5d:	e9 46 f8 ff ff       	jmp    30024a8 <_vfiprintf_r+0x308>
 3002c62:	8d 44 24 60          	lea    0x60(%esp),%eax
 3002c66:	89 44 24 24          	mov    %eax,0x24(%esp)
 3002c6a:	e9 39 f8 ff ff       	jmp    30024a8 <_vfiprintf_r+0x308>
 3002c6f:	8b 31                	mov    (%ecx),%esi
 3002c71:	89 84 24 8c 00 00 00 	mov    %eax,0x8c(%esp)
 3002c78:	8b 3c 24             	mov    (%esp),%edi
 3002c7b:	c6 44 24 04 00       	movb   $0x0,0x4(%esp)
 3002c80:	e9 d3 f7 ff ff       	jmp    3002458 <_vfiprintf_r+0x2b8>
 3002c85:	8b 00                	mov    (%eax),%eax
 3002c87:	89 c6                	mov    %eax,%esi
 3002c89:	89 94 24 8c 00 00 00 	mov    %edx,0x8c(%esp)
 3002c90:	8b 3c 24             	mov    (%esp),%edi
 3002c93:	e9 b8 f7 ff ff       	jmp    3002450 <_vfiprintf_r+0x2b0>
 3002c98:	8b 31                	mov    (%ecx),%esi
 3002c9a:	89 84 24 8c 00 00 00 	mov    %eax,0x8c(%esp)
 3002ca1:	8b 3c 24             	mov    (%esp),%edi
 3002ca4:	e9 52 f8 ff ff       	jmp    30024fb <_vfiprintf_r+0x35b>
 3002ca9:	8d 44 24 60          	lea    0x60(%esp),%eax
 3002cad:	2b 44 24 24          	sub    0x24(%esp),%eax
 3002cb1:	89 44 24 14          	mov    %eax,0x14(%esp)
 3002cb5:	e9 ee f7 ff ff       	jmp    30024a8 <_vfiprintf_r+0x308>
 3002cba:	83 f8 01             	cmp    $0x1,%eax
 3002cbd:	0f 85 d7 fb ff ff    	jne    300289a <_vfiprintf_r+0x6fa>
 3002cc3:	8b 3c 24             	mov    (%esp),%edi
 3002cc6:	e9 8b f8 ff ff       	jmp    3002556 <_vfiprintf_r+0x3b6>
 3002ccb:	89 4c 24 08          	mov    %ecx,0x8(%esp)
 3002ccf:	83 f9 06             	cmp    $0x6,%ecx
 3002cd2:	77 41                	ja     3002d15 <_vfiprintf_r+0xb75>
 3002cd4:	89 b4 24 8c 00 00 00 	mov    %esi,0x8c(%esp)
 3002cdb:	8b 44 24 08          	mov    0x8(%esp),%eax
 3002cdf:	89 44 24 14          	mov    %eax,0x14(%esp)
 3002ce3:	c6 44 24 04 00       	movb   $0x0,0x4(%esp)
 3002ce8:	c7 44 24 10 00 00 00 	movl   $0x0,0x10(%esp)
 3002cef:	00 
 3002cf0:	c7 44 24 24 e1 60 00 	movl   $0x30060e1,0x24(%esp)
 3002cf7:	03 
 3002cf8:	e9 c3 f5 ff ff       	jmp    30022c0 <_vfiprintf_r+0x120>
 3002cfd:	89 4c 24 10          	mov    %ecx,0x10(%esp)
 3002d01:	89 94 24 88 00 00 00 	mov    %edx,0x88(%esp)
 3002d08:	c7 44 24 28 bf 60 00 	movl   $0x30060bf,0x28(%esp)
 3002d0f:	03 
 3002d10:	e9 17 fb ff ff       	jmp    300282c <_vfiprintf_r+0x68c>
 3002d15:	c7 44 24 08 06 00 00 	movl   $0x6,0x8(%esp)
 3002d1c:	00 
 3002d1d:	eb b5                	jmp    3002cd4 <_vfiprintf_r+0xb34>
 3002d1f:	89 b4 24 8c 00 00 00 	mov    %esi,0x8c(%esp)
 3002d26:	8b 44 24 10          	mov    0x10(%esp),%eax
 3002d2a:	89 44 24 14          	mov    %eax,0x14(%esp)
 3002d2e:	89 44 24 08          	mov    %eax,0x8(%esp)
 3002d32:	c6 44 24 04 00       	movb   $0x0,0x4(%esp)
 3002d37:	c7 44 24 10 00 00 00 	movl   $0x0,0x10(%esp)
 3002d3e:	00 
 3002d3f:	e9 7c f5 ff ff       	jmp    30022c0 <_vfiprintf_r+0x120>
 3002d44:	83 ec 0c             	sub    $0xc,%esp
 3002d47:	ff 74 24 30          	pushl  0x30(%esp)
 3002d4b:	e8 cc 0e 00 00       	call   3003c1c <strlen>
 3002d50:	89 44 24 24          	mov    %eax,0x24(%esp)
 3002d54:	89 44 24 18          	mov    %eax,0x18(%esp)
 3002d58:	83 c4 10             	add    $0x10,%esp
 3002d5b:	85 c0                	test   %eax,%eax
 3002d5d:	0f 89 b6 f8 ff ff    	jns    3002619 <_vfiprintf_r+0x479>
 3002d63:	c7 44 24 08 00 00 00 	movl   $0x0,0x8(%esp)
 3002d6a:	00 
 3002d6b:	e9 a9 f8 ff ff       	jmp    3002619 <_vfiprintf_r+0x479>
 3002d70:	8b 3c 24             	mov    (%esp),%edi
 3002d73:	e9 b5 f7 ff ff       	jmp    300252d <_vfiprintf_r+0x38d>
 3002d78:	8b 3c 24             	mov    (%esp),%edi
 3002d7b:	e9 cd f8 ff ff       	jmp    300264d <_vfiprintf_r+0x4ad>
 3002d80:	8b 3c 24             	mov    (%esp),%edi
 3002d83:	e9 63 f7 ff ff       	jmp    30024eb <_vfiprintf_r+0x34b>
 3002d88:	8b 84 24 8c 00 00 00 	mov    0x8c(%esp),%eax
 3002d8f:	83 c0 04             	add    $0x4,%eax
 3002d92:	8b 8c 24 8c 00 00 00 	mov    0x8c(%esp),%ecx
 3002d99:	8b 09                	mov    (%ecx),%ecx
 3002d9b:	85 c9                	test   %ecx,%ecx
 3002d9d:	79 05                	jns    3002da4 <_vfiprintf_r+0xc04>
 3002d9f:	b9 ff ff ff ff       	mov    $0xffffffff,%ecx
 3002da4:	89 84 24 8c 00 00 00 	mov    %eax,0x8c(%esp)
 3002dab:	89 fa                	mov    %edi,%edx
 3002dad:	89 d7                	mov    %edx,%edi
 3002daf:	e9 9a f4 ff ff       	jmp    300224e <_vfiprintf_r+0xae>

03002db4 <vfiprintf>:
 3002db4:	83 ec 0c             	sub    $0xc,%esp
 3002db7:	e8 b0 e3 ff ff       	call   300116c <__getreent>
 3002dbc:	ff 74 24 18          	pushl  0x18(%esp)
 3002dc0:	ff 74 24 18          	pushl  0x18(%esp)
 3002dc4:	ff 74 24 18          	pushl  0x18(%esp)
 3002dc8:	50                   	push   %eax
 3002dc9:	e8 d2 f3 ff ff       	call   30021a0 <_vfiprintf_r>
 3002dce:	83 c4 1c             	add    $0x1c,%esp
 3002dd1:	c3                   	ret    
 3002dd2:	66 90                	xchg   %ax,%ax

03002dd4 <_fputc_r>:
 3002dd4:	57                   	push   %edi
 3002dd5:	56                   	push   %esi
 3002dd6:	53                   	push   %ebx
 3002dd7:	8b 5c 24 10          	mov    0x10(%esp),%ebx
 3002ddb:	8b 74 24 14          	mov    0x14(%esp),%esi
 3002ddf:	8b 7c 24 18          	mov    0x18(%esp),%edi
 3002de3:	85 db                	test   %ebx,%ebx
 3002de5:	74 07                	je     3002dee <_fputc_r+0x1a>
 3002de7:	8b 43 38             	mov    0x38(%ebx),%eax
 3002dea:	85 c0                	test   %eax,%eax
 3002dec:	74 16                	je     3002e04 <_fputc_r+0x30>
 3002dee:	89 7c 24 18          	mov    %edi,0x18(%esp)
 3002df2:	89 74 24 14          	mov    %esi,0x14(%esp)
 3002df6:	89 5c 24 10          	mov    %ebx,0x10(%esp)
 3002dfa:	5b                   	pop    %ebx
 3002dfb:	5e                   	pop    %esi
 3002dfc:	5f                   	pop    %edi
 3002dfd:	e9 72 16 00 00       	jmp    3004474 <_putc_r>
 3002e02:	66 90                	xchg   %ax,%ax
 3002e04:	83 ec 0c             	sub    $0xc,%esp
 3002e07:	53                   	push   %ebx
 3002e08:	e8 9f f2 ff ff       	call   30020ac <__sinit>
 3002e0d:	83 c4 10             	add    $0x10,%esp
 3002e10:	eb dc                	jmp    3002dee <_fputc_r+0x1a>
 3002e12:	66 90                	xchg   %ax,%ax

03002e14 <fputc>:
 3002e14:	83 ec 1c             	sub    $0x1c,%esp
 3002e17:	e8 50 e3 ff ff       	call   300116c <__getreent>
 3002e1c:	85 c0                	test   %eax,%eax
 3002e1e:	74 07                	je     3002e27 <fputc+0x13>
 3002e20:	8b 48 38             	mov    0x38(%eax),%ecx
 3002e23:	85 c9                	test   %ecx,%ecx
 3002e25:	74 15                	je     3002e3c <fputc+0x28>
 3002e27:	52                   	push   %edx
 3002e28:	ff 74 24 28          	pushl  0x28(%esp)
 3002e2c:	ff 74 24 28          	pushl  0x28(%esp)
 3002e30:	50                   	push   %eax
 3002e31:	e8 3e 16 00 00       	call   3004474 <_putc_r>
 3002e36:	83 c4 2c             	add    $0x2c,%esp
 3002e39:	c3                   	ret    
 3002e3a:	66 90                	xchg   %ax,%ax
 3002e3c:	83 ec 0c             	sub    $0xc,%esp
 3002e3f:	50                   	push   %eax
 3002e40:	89 44 24 1c          	mov    %eax,0x1c(%esp)
 3002e44:	e8 63 f2 ff ff       	call   30020ac <__sinit>
 3002e49:	83 c4 10             	add    $0x10,%esp
 3002e4c:	8b 44 24 0c          	mov    0xc(%esp),%eax
 3002e50:	eb d5                	jmp    3002e27 <fputc+0x13>
 3002e52:	66 90                	xchg   %ax,%ax

03002e54 <__swsetup_r>:
 3002e54:	53                   	push   %ebx
 3002e55:	83 ec 08             	sub    $0x8,%esp
 3002e58:	8b 5c 24 14          	mov    0x14(%esp),%ebx
 3002e5c:	e8 0b e3 ff ff       	call   300116c <__getreent>
 3002e61:	85 c0                	test   %eax,%eax
 3002e63:	74 0b                	je     3002e70 <__swsetup_r+0x1c>
 3002e65:	8b 50 38             	mov    0x38(%eax),%edx
 3002e68:	85 d2                	test   %edx,%edx
 3002e6a:	0f 84 98 00 00 00    	je     3002f08 <__swsetup_r+0xb4>
 3002e70:	8b 43 0c             	mov    0xc(%ebx),%eax
 3002e73:	a8 08                	test   $0x8,%al
 3002e75:	74 25                	je     3002e9c <__swsetup_r+0x48>
 3002e77:	8b 53 10             	mov    0x10(%ebx),%edx
 3002e7a:	85 d2                	test   %edx,%edx
 3002e7c:	74 38                	je     3002eb6 <__swsetup_r+0x62>
 3002e7e:	a8 01                	test   $0x1,%al
 3002e80:	75 5e                	jne    3002ee0 <__swsetup_r+0x8c>
 3002e82:	a8 02                	test   $0x2,%al
 3002e84:	0f 85 92 00 00 00    	jne    3002f1c <__swsetup_r+0xc8>
 3002e8a:	8b 4b 14             	mov    0x14(%ebx),%ecx
 3002e8d:	89 4b 08             	mov    %ecx,0x8(%ebx)
 3002e90:	85 d2                	test   %edx,%edx
 3002e92:	74 5f                	je     3002ef3 <__swsetup_r+0x9f>
 3002e94:	31 c0                	xor    %eax,%eax
 3002e96:	83 c4 08             	add    $0x8,%esp
 3002e99:	5b                   	pop    %ebx
 3002e9a:	c3                   	ret    
 3002e9b:	90                   	nop
 3002e9c:	a8 10                	test   $0x10,%al
 3002e9e:	0f 84 bc 00 00 00    	je     3002f60 <__swsetup_r+0x10c>
 3002ea4:	a8 04                	test   $0x4,%al
 3002ea6:	75 7c                	jne    3002f24 <__swsetup_r+0xd0>
 3002ea8:	8b 53 10             	mov    0x10(%ebx),%edx
 3002eab:	83 c8 08             	or     $0x8,%eax
 3002eae:	66 89 43 0c          	mov    %ax,0xc(%ebx)
 3002eb2:	85 d2                	test   %edx,%edx
 3002eb4:	75 c8                	jne    3002e7e <__swsetup_r+0x2a>
 3002eb6:	89 c1                	mov    %eax,%ecx
 3002eb8:	81 e1 80 02 00 00    	and    $0x280,%ecx
 3002ebe:	66 81 f9 00 02       	cmp    $0x200,%cx
 3002ec3:	74 b9                	je     3002e7e <__swsetup_r+0x2a>
 3002ec5:	83 ec 08             	sub    $0x8,%esp
 3002ec8:	53                   	push   %ebx
 3002ec9:	ff 74 24 1c          	pushl  0x1c(%esp)
 3002ecd:	e8 02 12 00 00       	call   30040d4 <__smakebuf_r>
 3002ed2:	8b 43 0c             	mov    0xc(%ebx),%eax
 3002ed5:	8b 53 10             	mov    0x10(%ebx),%edx
 3002ed8:	83 c4 10             	add    $0x10,%esp
 3002edb:	a8 01                	test   $0x1,%al
 3002edd:	74 a3                	je     3002e82 <__swsetup_r+0x2e>
 3002edf:	90                   	nop
 3002ee0:	c7 43 08 00 00 00 00 	movl   $0x0,0x8(%ebx)
 3002ee7:	8b 4b 14             	mov    0x14(%ebx),%ecx
 3002eea:	f7 d9                	neg    %ecx
 3002eec:	89 4b 18             	mov    %ecx,0x18(%ebx)
 3002eef:	85 d2                	test   %edx,%edx
 3002ef1:	75 a1                	jne    3002e94 <__swsetup_r+0x40>
 3002ef3:	a8 80                	test   $0x80,%al
 3002ef5:	74 9d                	je     3002e94 <__swsetup_r+0x40>
 3002ef7:	83 c8 40             	or     $0x40,%eax
 3002efa:	66 89 43 0c          	mov    %ax,0xc(%ebx)
 3002efe:	b8 ff ff ff ff       	mov    $0xffffffff,%eax
 3002f03:	eb 91                	jmp    3002e96 <__swsetup_r+0x42>
 3002f05:	8d 76 00             	lea    0x0(%esi),%esi
 3002f08:	83 ec 0c             	sub    $0xc,%esp
 3002f0b:	50                   	push   %eax
 3002f0c:	e8 9b f1 ff ff       	call   30020ac <__sinit>
 3002f11:	83 c4 10             	add    $0x10,%esp
 3002f14:	e9 57 ff ff ff       	jmp    3002e70 <__swsetup_r+0x1c>
 3002f19:	8d 76 00             	lea    0x0(%esi),%esi
 3002f1c:	31 c9                	xor    %ecx,%ecx
 3002f1e:	e9 6a ff ff ff       	jmp    3002e8d <__swsetup_r+0x39>
 3002f23:	90                   	nop
 3002f24:	8b 53 30             	mov    0x30(%ebx),%edx
 3002f27:	85 d2                	test   %edx,%edx
 3002f29:	74 21                	je     3002f4c <__swsetup_r+0xf8>
 3002f2b:	8d 4b 40             	lea    0x40(%ebx),%ecx
 3002f2e:	39 ca                	cmp    %ecx,%edx
 3002f30:	74 13                	je     3002f45 <__swsetup_r+0xf1>
 3002f32:	83 ec 08             	sub    $0x8,%esp
 3002f35:	52                   	push   %edx
 3002f36:	ff 74 24 1c          	pushl  0x1c(%esp)
 3002f3a:	e8 19 02 00 00       	call   3003158 <_free_r>
 3002f3f:	8b 43 0c             	mov    0xc(%ebx),%eax
 3002f42:	83 c4 10             	add    $0x10,%esp
 3002f45:	c7 43 30 00 00 00 00 	movl   $0x0,0x30(%ebx)
 3002f4c:	83 e0 db             	and    $0xffffffdb,%eax
 3002f4f:	c7 43 04 00 00 00 00 	movl   $0x0,0x4(%ebx)
 3002f56:	8b 53 10             	mov    0x10(%ebx),%edx
 3002f59:	89 13                	mov    %edx,(%ebx)
 3002f5b:	e9 4b ff ff ff       	jmp    3002eab <__swsetup_r+0x57>
 3002f60:	8b 54 24 10          	mov    0x10(%esp),%edx
 3002f64:	c7 02 09 00 00 00    	movl   $0x9,(%edx)
 3002f6a:	83 c8 40             	or     $0x40,%eax
 3002f6d:	66 89 43 0c          	mov    %ax,0xc(%ebx)
 3002f71:	b8 ff ff ff ff       	mov    $0xffffffff,%eax
 3002f76:	e9 1b ff ff ff       	jmp    3002e96 <__swsetup_r+0x42>
 3002f7b:	90                   	nop

03002f7c <_fclose_r>:
 3002f7c:	57                   	push   %edi
 3002f7d:	56                   	push   %esi
 3002f7e:	53                   	push   %ebx
 3002f7f:	8b 74 24 10          	mov    0x10(%esp),%esi
 3002f83:	8b 5c 24 14          	mov    0x14(%esp),%ebx
 3002f87:	85 db                	test   %ebx,%ebx
 3002f89:	74 16                	je     3002fa1 <_fclose_r+0x25>
 3002f8b:	85 f6                	test   %esi,%esi
 3002f8d:	74 0b                	je     3002f9a <_fclose_r+0x1e>
 3002f8f:	8b 46 38             	mov    0x38(%esi),%eax
 3002f92:	85 c0                	test   %eax,%eax
 3002f94:	0f 84 92 00 00 00    	je     300302c <_fclose_r+0xb0>
 3002f9a:	66 83 7b 0c 00       	cmpw   $0x0,0xc(%ebx)
 3002f9f:	75 0b                	jne    3002fac <_fclose_r+0x30>
 3002fa1:	31 ff                	xor    %edi,%edi
 3002fa3:	89 f8                	mov    %edi,%eax
 3002fa5:	5b                   	pop    %ebx
 3002fa6:	5e                   	pop    %esi
 3002fa7:	5f                   	pop    %edi
 3002fa8:	c3                   	ret    
 3002fa9:	8d 76 00             	lea    0x0(%esi),%esi
 3002fac:	83 ec 08             	sub    $0x8,%esp
 3002faf:	53                   	push   %ebx
 3002fb0:	56                   	push   %esi
 3002fb1:	e8 da 11 00 00       	call   3004190 <__sflush_r>
 3002fb6:	89 c7                	mov    %eax,%edi
 3002fb8:	8b 43 2c             	mov    0x2c(%ebx),%eax
 3002fbb:	83 c4 10             	add    $0x10,%esp
 3002fbe:	85 c0                	test   %eax,%eax
 3002fc0:	74 10                	je     3002fd2 <_fclose_r+0x56>
 3002fc2:	83 ec 08             	sub    $0x8,%esp
 3002fc5:	ff 73 1c             	pushl  0x1c(%ebx)
 3002fc8:	56                   	push   %esi
 3002fc9:	ff d0                	call   *%eax
 3002fcb:	83 c4 10             	add    $0x10,%esp
 3002fce:	85 c0                	test   %eax,%eax
 3002fd0:	78 76                	js     3003048 <_fclose_r+0xcc>
 3002fd2:	f6 43 0c 80          	testb  $0x80,0xc(%ebx)
 3002fd6:	75 7b                	jne    3003053 <_fclose_r+0xd7>
 3002fd8:	8b 43 30             	mov    0x30(%ebx),%eax
 3002fdb:	85 c0                	test   %eax,%eax
 3002fdd:	74 1b                	je     3002ffa <_fclose_r+0x7e>
 3002fdf:	8d 53 40             	lea    0x40(%ebx),%edx
 3002fe2:	39 d0                	cmp    %edx,%eax
 3002fe4:	74 0d                	je     3002ff3 <_fclose_r+0x77>
 3002fe6:	83 ec 08             	sub    $0x8,%esp
 3002fe9:	50                   	push   %eax
 3002fea:	56                   	push   %esi
 3002feb:	e8 68 01 00 00       	call   3003158 <_free_r>
 3002ff0:	83 c4 10             	add    $0x10,%esp
 3002ff3:	c7 43 30 00 00 00 00 	movl   $0x0,0x30(%ebx)
 3002ffa:	8b 43 44             	mov    0x44(%ebx),%eax
 3002ffd:	85 c0                	test   %eax,%eax
 3002fff:	74 14                	je     3003015 <_fclose_r+0x99>
 3003001:	83 ec 08             	sub    $0x8,%esp
 3003004:	50                   	push   %eax
 3003005:	56                   	push   %esi
 3003006:	e8 4d 01 00 00       	call   3003158 <_free_r>
 300300b:	c7 43 44 00 00 00 00 	movl   $0x0,0x44(%ebx)
 3003012:	83 c4 10             	add    $0x10,%esp
 3003015:	e8 a6 f0 ff ff       	call   30020c0 <__sfp_lock_acquire>
 300301a:	66 c7 43 0c 00 00    	movw   $0x0,0xc(%ebx)
 3003020:	e8 9f f0 ff ff       	call   30020c4 <__sfp_lock_release>
 3003025:	89 f8                	mov    %edi,%eax
 3003027:	5b                   	pop    %ebx
 3003028:	5e                   	pop    %esi
 3003029:	5f                   	pop    %edi
 300302a:	c3                   	ret    
 300302b:	90                   	nop
 300302c:	83 ec 0c             	sub    $0xc,%esp
 300302f:	56                   	push   %esi
 3003030:	e8 77 f0 ff ff       	call   30020ac <__sinit>
 3003035:	83 c4 10             	add    $0x10,%esp
 3003038:	66 83 7b 0c 00       	cmpw   $0x0,0xc(%ebx)
 300303d:	0f 84 5e ff ff ff    	je     3002fa1 <_fclose_r+0x25>
 3003043:	e9 64 ff ff ff       	jmp    3002fac <_fclose_r+0x30>
 3003048:	bf ff ff ff ff       	mov    $0xffffffff,%edi
 300304d:	f6 43 0c 80          	testb  $0x80,0xc(%ebx)
 3003051:	74 85                	je     3002fd8 <_fclose_r+0x5c>
 3003053:	83 ec 08             	sub    $0x8,%esp
 3003056:	ff 73 10             	pushl  0x10(%ebx)
 3003059:	56                   	push   %esi
 300305a:	e8 f9 00 00 00       	call   3003158 <_free_r>
 300305f:	83 c4 10             	add    $0x10,%esp
 3003062:	e9 71 ff ff ff       	jmp    3002fd8 <_fclose_r+0x5c>
 3003067:	90                   	nop

03003068 <fclose>:
 3003068:	83 ec 0c             	sub    $0xc,%esp
 300306b:	e8 fc e0 ff ff       	call   300116c <__getreent>
 3003070:	83 ec 08             	sub    $0x8,%esp
 3003073:	ff 74 24 18          	pushl  0x18(%esp)
 3003077:	50                   	push   %eax
 3003078:	e8 ff fe ff ff       	call   3002f7c <_fclose_r>
 300307d:	83 c4 1c             	add    $0x1c,%esp
 3003080:	c3                   	ret    
 3003081:	66 90                	xchg   %ax,%ax
 3003083:	90                   	nop

03003084 <_malloc_trim_r>:
 3003084:	57                   	push   %edi
 3003085:	56                   	push   %esi
 3003086:	53                   	push   %ebx
 3003087:	8b 74 24 10          	mov    0x10(%esp),%esi
 300308b:	83 ec 0c             	sub    $0xc,%esp
 300308e:	56                   	push   %esi
 300308f:	e8 b8 03 00 00       	call   300344c <__malloc_lock>
 3003094:	a1 c8 74 00 03       	mov    0x30074c8,%eax
 3003099:	8b 58 04             	mov    0x4(%eax),%ebx
 300309c:	83 e3 fc             	and    $0xfffffffc,%ebx
 300309f:	89 d8                	mov    %ebx,%eax
 30030a1:	2b 44 24 24          	sub    0x24(%esp),%eax
 30030a5:	05 ef 0f 00 00       	add    $0xfef,%eax
 30030aa:	25 00 f0 ff ff       	and    $0xfffff000,%eax
 30030af:	8d b8 00 f0 ff ff    	lea    -0x1000(%eax),%edi
 30030b5:	83 c4 10             	add    $0x10,%esp
 30030b8:	81 ff ff 0f 00 00    	cmp    $0xfff,%edi
 30030be:	7e 1a                	jle    30030da <_malloc_trim_r+0x56>
 30030c0:	83 ec 08             	sub    $0x8,%esp
 30030c3:	6a 00                	push   $0x0
 30030c5:	56                   	push   %esi
 30030c6:	e8 15 0f 00 00       	call   3003fe0 <_sbrk_r>
 30030cb:	8b 15 c8 74 00 03    	mov    0x30074c8,%edx
 30030d1:	01 da                	add    %ebx,%edx
 30030d3:	83 c4 10             	add    $0x10,%esp
 30030d6:	39 d0                	cmp    %edx,%eax
 30030d8:	74 12                	je     30030ec <_malloc_trim_r+0x68>
 30030da:	83 ec 0c             	sub    $0xc,%esp
 30030dd:	56                   	push   %esi
 30030de:	e8 6d 03 00 00       	call   3003450 <__malloc_unlock>
 30030e3:	83 c4 10             	add    $0x10,%esp
 30030e6:	31 c0                	xor    %eax,%eax
 30030e8:	5b                   	pop    %ebx
 30030e9:	5e                   	pop    %esi
 30030ea:	5f                   	pop    %edi
 30030eb:	c3                   	ret    
 30030ec:	83 ec 08             	sub    $0x8,%esp
 30030ef:	89 f8                	mov    %edi,%eax
 30030f1:	f7 d8                	neg    %eax
 30030f3:	50                   	push   %eax
 30030f4:	56                   	push   %esi
 30030f5:	e8 e6 0e 00 00       	call   3003fe0 <_sbrk_r>
 30030fa:	83 c4 10             	add    $0x10,%esp
 30030fd:	40                   	inc    %eax
 30030fe:	74 28                	je     3003128 <_malloc_trim_r+0xa4>
 3003100:	29 fb                	sub    %edi,%ebx
 3003102:	83 cb 01             	or     $0x1,%ebx
 3003105:	a1 c8 74 00 03       	mov    0x30074c8,%eax
 300310a:	89 58 04             	mov    %ebx,0x4(%eax)
 300310d:	29 3d 40 7d 00 03    	sub    %edi,0x3007d40
 3003113:	83 ec 0c             	sub    $0xc,%esp
 3003116:	56                   	push   %esi
 3003117:	e8 34 03 00 00       	call   3003450 <__malloc_unlock>
 300311c:	83 c4 10             	add    $0x10,%esp
 300311f:	b8 01 00 00 00       	mov    $0x1,%eax
 3003124:	5b                   	pop    %ebx
 3003125:	5e                   	pop    %esi
 3003126:	5f                   	pop    %edi
 3003127:	c3                   	ret    
 3003128:	83 ec 08             	sub    $0x8,%esp
 300312b:	6a 00                	push   $0x0
 300312d:	56                   	push   %esi
 300312e:	e8 ad 0e 00 00       	call   3003fe0 <_sbrk_r>
 3003133:	8b 0d c8 74 00 03    	mov    0x30074c8,%ecx
 3003139:	89 c2                	mov    %eax,%edx
 300313b:	29 ca                	sub    %ecx,%edx
 300313d:	83 c4 10             	add    $0x10,%esp
 3003140:	83 fa 0f             	cmp    $0xf,%edx
 3003143:	7e 95                	jle    30030da <_malloc_trim_r+0x56>
 3003145:	2b 05 a0 74 00 03    	sub    0x30074a0,%eax
 300314b:	a3 40 7d 00 03       	mov    %eax,0x3007d40
 3003150:	83 ca 01             	or     $0x1,%edx
 3003153:	89 51 04             	mov    %edx,0x4(%ecx)
 3003156:	eb 82                	jmp    30030da <_malloc_trim_r+0x56>

03003158 <_free_r>:
 3003158:	55                   	push   %ebp
 3003159:	57                   	push   %edi
 300315a:	56                   	push   %esi
 300315b:	53                   	push   %ebx
 300315c:	83 ec 1c             	sub    $0x1c,%esp
 300315f:	8b 74 24 30          	mov    0x30(%esp),%esi
 3003163:	8b 5c 24 34          	mov    0x34(%esp),%ebx
 3003167:	85 db                	test   %ebx,%ebx
 3003169:	0f 84 fd 00 00 00    	je     300326c <_free_r+0x114>
 300316f:	83 ec 0c             	sub    $0xc,%esp
 3003172:	56                   	push   %esi
 3003173:	e8 d4 02 00 00       	call   300344c <__malloc_lock>
 3003178:	8d 43 f8             	lea    -0x8(%ebx),%eax
 300317b:	8b 7b fc             	mov    -0x4(%ebx),%edi
 300317e:	89 f9                	mov    %edi,%ecx
 3003180:	83 e1 fe             	and    $0xfffffffe,%ecx
 3003183:	8d 54 0b f8          	lea    -0x8(%ebx,%ecx,1),%edx
 3003187:	8b 6a 04             	mov    0x4(%edx),%ebp
 300318a:	83 e5 fc             	and    $0xfffffffc,%ebp
 300318d:	89 6c 24 1c          	mov    %ebp,0x1c(%esp)
 3003191:	83 c4 10             	add    $0x10,%esp
 3003194:	39 15 c8 74 00 03    	cmp    %edx,0x30074c8
 300319a:	0f 84 84 01 00 00    	je     3003324 <_free_r+0x1cc>
 30031a0:	8b 6c 24 0c          	mov    0xc(%esp),%ebp
 30031a4:	89 6a 04             	mov    %ebp,0x4(%edx)
 30031a7:	01 d5                	add    %edx,%ebp
 30031a9:	83 e7 01             	and    $0x1,%edi
 30031ac:	0f 85 86 00 00 00    	jne    3003238 <_free_r+0xe0>
 30031b2:	8b 5b f8             	mov    -0x8(%ebx),%ebx
 30031b5:	29 d8                	sub    %ebx,%eax
 30031b7:	01 d9                	add    %ebx,%ecx
 30031b9:	8b 58 08             	mov    0x8(%eax),%ebx
 30031bc:	8b 6d 04             	mov    0x4(%ebp),%ebp
 30031bf:	83 e5 01             	and    $0x1,%ebp
 30031c2:	81 fb c8 74 00 03    	cmp    $0x30074c8,%ebx
 30031c8:	0f 84 22 01 00 00    	je     30032f0 <_free_r+0x198>
 30031ce:	8b 78 0c             	mov    0xc(%eax),%edi
 30031d1:	89 7b 0c             	mov    %edi,0xc(%ebx)
 30031d4:	89 5f 08             	mov    %ebx,0x8(%edi)
 30031d7:	85 ed                	test   %ebp,%ebp
 30031d9:	74 63                	je     300323e <_free_r+0xe6>
 30031db:	89 cb                	mov    %ecx,%ebx
 30031dd:	83 cb 01             	or     $0x1,%ebx
 30031e0:	89 58 04             	mov    %ebx,0x4(%eax)
 30031e3:	89 0a                	mov    %ecx,(%edx)
 30031e5:	81 f9 ff 01 00 00    	cmp    $0x1ff,%ecx
 30031eb:	0f 87 99 00 00 00    	ja     300328a <_free_r+0x132>
 30031f1:	89 cb                	mov    %ecx,%ebx
 30031f3:	c1 eb 03             	shr    $0x3,%ebx
 30031f6:	c1 e9 05             	shr    $0x5,%ecx
 30031f9:	ba 01 00 00 00       	mov    $0x1,%edx
 30031fe:	d3 e2                	shl    %cl,%edx
 3003200:	09 15 c4 74 00 03    	or     %edx,0x30074c4
 3003206:	8d 14 dd 08 00 00 00 	lea    0x8(,%ebx,8),%edx
 300320d:	8b 8a c0 74 00 03    	mov    0x30074c0(%edx),%ecx
 3003213:	8d 9a b8 74 00 03    	lea    0x30074b8(%edx),%ebx
 3003219:	89 58 0c             	mov    %ebx,0xc(%eax)
 300321c:	89 48 08             	mov    %ecx,0x8(%eax)
 300321f:	89 82 c0 74 00 03    	mov    %eax,0x30074c0(%edx)
 3003225:	89 41 0c             	mov    %eax,0xc(%ecx)
 3003228:	89 74 24 30          	mov    %esi,0x30(%esp)
 300322c:	83 c4 1c             	add    $0x1c,%esp
 300322f:	5b                   	pop    %ebx
 3003230:	5e                   	pop    %esi
 3003231:	5f                   	pop    %edi
 3003232:	5d                   	pop    %ebp
 3003233:	e9 18 02 00 00       	jmp    3003450 <__malloc_unlock>
 3003238:	f6 45 04 01          	testb  $0x1,0x4(%ebp)
 300323c:	75 36                	jne    3003274 <_free_r+0x11c>
 300323e:	03 4c 24 0c          	add    0xc(%esp),%ecx
 3003242:	8b 5a 08             	mov    0x8(%edx),%ebx
 3003245:	89 cd                	mov    %ecx,%ebp
 3003247:	83 cd 01             	or     $0x1,%ebp
 300324a:	8d 3c 08             	lea    (%eax,%ecx,1),%edi
 300324d:	81 fb c8 74 00 03    	cmp    $0x30074c8,%ebx
 3003253:	0f 84 47 01 00 00    	je     30033a0 <_free_r+0x248>
 3003259:	8b 52 0c             	mov    0xc(%edx),%edx
 300325c:	89 53 0c             	mov    %edx,0xc(%ebx)
 300325f:	89 5a 08             	mov    %ebx,0x8(%edx)
 3003262:	89 68 04             	mov    %ebp,0x4(%eax)
 3003265:	89 0f                	mov    %ecx,(%edi)
 3003267:	e9 79 ff ff ff       	jmp    30031e5 <_free_r+0x8d>
 300326c:	83 c4 1c             	add    $0x1c,%esp
 300326f:	5b                   	pop    %ebx
 3003270:	5e                   	pop    %esi
 3003271:	5f                   	pop    %edi
 3003272:	5d                   	pop    %ebp
 3003273:	c3                   	ret    
 3003274:	89 cf                	mov    %ecx,%edi
 3003276:	83 cf 01             	or     $0x1,%edi
 3003279:	89 7b fc             	mov    %edi,-0x4(%ebx)
 300327c:	89 0a                	mov    %ecx,(%edx)
 300327e:	81 f9 ff 01 00 00    	cmp    $0x1ff,%ecx
 3003284:	0f 86 67 ff ff ff    	jbe    30031f1 <_free_r+0x99>
 300328a:	89 ca                	mov    %ecx,%edx
 300328c:	c1 ea 09             	shr    $0x9,%edx
 300328f:	81 f9 ff 09 00 00    	cmp    $0x9ff,%ecx
 3003295:	0f 87 d5 00 00 00    	ja     3003370 <_free_r+0x218>
 300329b:	89 ca                	mov    %ecx,%edx
 300329d:	c1 ea 06             	shr    $0x6,%edx
 30032a0:	8d 5a 38             	lea    0x38(%edx),%ebx
 30032a3:	8d 14 d5 c8 01 00 00 	lea    0x1c8(,%edx,8),%edx
 30032aa:	8d ba b8 74 00 03    	lea    0x30074b8(%edx),%edi
 30032b0:	8b 92 c0 74 00 03    	mov    0x30074c0(%edx),%edx
 30032b6:	39 d7                	cmp    %edx,%edi
 30032b8:	0f 84 06 01 00 00    	je     30033c4 <_free_r+0x26c>
 30032be:	66 90                	xchg   %ax,%ax
 30032c0:	8b 5a 04             	mov    0x4(%edx),%ebx
 30032c3:	83 e3 fc             	and    $0xfffffffc,%ebx
 30032c6:	39 cb                	cmp    %ecx,%ebx
 30032c8:	76 07                	jbe    30032d1 <_free_r+0x179>
 30032ca:	8b 52 08             	mov    0x8(%edx),%edx
 30032cd:	39 d7                	cmp    %edx,%edi
 30032cf:	75 ef                	jne    30032c0 <_free_r+0x168>
 30032d1:	8b 7a 0c             	mov    0xc(%edx),%edi
 30032d4:	89 78 0c             	mov    %edi,0xc(%eax)
 30032d7:	89 50 08             	mov    %edx,0x8(%eax)
 30032da:	89 47 08             	mov    %eax,0x8(%edi)
 30032dd:	89 42 0c             	mov    %eax,0xc(%edx)
 30032e0:	89 74 24 30          	mov    %esi,0x30(%esp)
 30032e4:	83 c4 1c             	add    $0x1c,%esp
 30032e7:	5b                   	pop    %ebx
 30032e8:	5e                   	pop    %esi
 30032e9:	5f                   	pop    %edi
 30032ea:	5d                   	pop    %ebp
 30032eb:	e9 60 01 00 00       	jmp    3003450 <__malloc_unlock>
 30032f0:	85 ed                	test   %ebp,%ebp
 30032f2:	0f 85 2b 01 00 00    	jne    3003423 <_free_r+0x2cb>
 30032f8:	03 4c 24 0c          	add    0xc(%esp),%ecx
 30032fc:	8b 5a 0c             	mov    0xc(%edx),%ebx
 30032ff:	8b 52 08             	mov    0x8(%edx),%edx
 3003302:	89 5a 0c             	mov    %ebx,0xc(%edx)
 3003305:	89 53 08             	mov    %edx,0x8(%ebx)
 3003308:	89 ca                	mov    %ecx,%edx
 300330a:	83 ca 01             	or     $0x1,%edx
 300330d:	89 50 04             	mov    %edx,0x4(%eax)
 3003310:	89 0c 08             	mov    %ecx,(%eax,%ecx,1)
 3003313:	89 74 24 30          	mov    %esi,0x30(%esp)
 3003317:	83 c4 1c             	add    $0x1c,%esp
 300331a:	5b                   	pop    %ebx
 300331b:	5e                   	pop    %esi
 300331c:	5f                   	pop    %edi
 300331d:	5d                   	pop    %ebp
 300331e:	e9 2d 01 00 00       	jmp    3003450 <__malloc_unlock>
 3003323:	90                   	nop
 3003324:	03 4c 24 0c          	add    0xc(%esp),%ecx
 3003328:	83 e7 01             	and    $0x1,%edi
 300332b:	75 13                	jne    3003340 <_free_r+0x1e8>
 300332d:	8b 53 f8             	mov    -0x8(%ebx),%edx
 3003330:	29 d0                	sub    %edx,%eax
 3003332:	01 d1                	add    %edx,%ecx
 3003334:	8b 50 0c             	mov    0xc(%eax),%edx
 3003337:	8b 58 08             	mov    0x8(%eax),%ebx
 300333a:	89 53 0c             	mov    %edx,0xc(%ebx)
 300333d:	89 5a 08             	mov    %ebx,0x8(%edx)
 3003340:	89 ca                	mov    %ecx,%edx
 3003342:	83 ca 01             	or     $0x1,%edx
 3003345:	89 50 04             	mov    %edx,0x4(%eax)
 3003348:	a3 c8 74 00 03       	mov    %eax,0x30074c8
 300334d:	39 0d a4 74 00 03    	cmp    %ecx,0x30074a4
 3003353:	0f 87 cf fe ff ff    	ja     3003228 <_free_r+0xd0>
 3003359:	83 ec 08             	sub    $0x8,%esp
 300335c:	ff 35 70 7d 00 03    	pushl  0x3007d70
 3003362:	56                   	push   %esi
 3003363:	e8 1c fd ff ff       	call   3003084 <_malloc_trim_r>
 3003368:	83 c4 10             	add    $0x10,%esp
 300336b:	e9 b8 fe ff ff       	jmp    3003228 <_free_r+0xd0>
 3003370:	83 fa 14             	cmp    $0x14,%edx
 3003373:	76 1b                	jbe    3003390 <_free_r+0x238>
 3003375:	83 fa 54             	cmp    $0x54,%edx
 3003378:	77 62                	ja     30033dc <_free_r+0x284>
 300337a:	89 ca                	mov    %ecx,%edx
 300337c:	c1 ea 0c             	shr    $0xc,%edx
 300337f:	8d 5a 6e             	lea    0x6e(%edx),%ebx
 3003382:	8d 14 d5 78 03 00 00 	lea    0x378(,%edx,8),%edx
 3003389:	e9 1c ff ff ff       	jmp    30032aa <_free_r+0x152>
 300338e:	66 90                	xchg   %ax,%ax
 3003390:	8d 5a 5b             	lea    0x5b(%edx),%ebx
 3003393:	8d 14 d5 e0 02 00 00 	lea    0x2e0(,%edx,8),%edx
 300339a:	e9 0b ff ff ff       	jmp    30032aa <_free_r+0x152>
 300339f:	90                   	nop
 30033a0:	a3 d4 74 00 03       	mov    %eax,0x30074d4
 30033a5:	a3 d0 74 00 03       	mov    %eax,0x30074d0
 30033aa:	c7 40 0c c8 74 00 03 	movl   $0x30074c8,0xc(%eax)
 30033b1:	c7 40 08 c8 74 00 03 	movl   $0x30074c8,0x8(%eax)
 30033b8:	89 68 04             	mov    %ebp,0x4(%eax)
 30033bb:	89 0f                	mov    %ecx,(%edi)
 30033bd:	e9 66 fe ff ff       	jmp    3003228 <_free_r+0xd0>
 30033c2:	66 90                	xchg   %ax,%ax
 30033c4:	89 d9                	mov    %ebx,%ecx
 30033c6:	c1 f9 02             	sar    $0x2,%ecx
 30033c9:	bb 01 00 00 00       	mov    $0x1,%ebx
 30033ce:	d3 e3                	shl    %cl,%ebx
 30033d0:	09 1d c4 74 00 03    	or     %ebx,0x30074c4
 30033d6:	e9 f9 fe ff ff       	jmp    30032d4 <_free_r+0x17c>
 30033db:	90                   	nop
 30033dc:	81 fa 54 01 00 00    	cmp    $0x154,%edx
 30033e2:	77 14                	ja     30033f8 <_free_r+0x2a0>
 30033e4:	89 ca                	mov    %ecx,%edx
 30033e6:	c1 ea 0f             	shr    $0xf,%edx
 30033e9:	8d 5a 77             	lea    0x77(%edx),%ebx
 30033ec:	8d 14 d5 c0 03 00 00 	lea    0x3c0(,%edx,8),%edx
 30033f3:	e9 b2 fe ff ff       	jmp    30032aa <_free_r+0x152>
 30033f8:	81 fa 54 05 00 00    	cmp    $0x554,%edx
 30033fe:	77 14                	ja     3003414 <_free_r+0x2bc>
 3003400:	89 ca                	mov    %ecx,%edx
 3003402:	c1 ea 12             	shr    $0x12,%edx
 3003405:	8d 5a 7c             	lea    0x7c(%edx),%ebx
 3003408:	8d 14 d5 e8 03 00 00 	lea    0x3e8(,%edx,8),%edx
 300340f:	e9 96 fe ff ff       	jmp    30032aa <_free_r+0x152>
 3003414:	ba f8 03 00 00       	mov    $0x3f8,%edx
 3003419:	bb 7e 00 00 00       	mov    $0x7e,%ebx
 300341e:	e9 87 fe ff ff       	jmp    30032aa <_free_r+0x152>
 3003423:	89 cb                	mov    %ecx,%ebx
 3003425:	83 cb 01             	or     $0x1,%ebx
 3003428:	89 58 04             	mov    %ebx,0x4(%eax)
 300342b:	89 0a                	mov    %ecx,(%edx)
 300342d:	e9 f6 fd ff ff       	jmp    3003228 <_free_r+0xd0>
 3003432:	66 90                	xchg   %ax,%ax

03003434 <abort>:
 3003434:	83 ec 18             	sub    $0x18,%esp
 3003437:	6a 06                	push   $0x6
 3003439:	e8 2e 0b 00 00       	call   3003f6c <raise>
 300343e:	c7 04 24 01 00 00 00 	movl   $0x1,(%esp)
 3003445:	e8 1e 20 00 00       	call   3005468 <_exit>
 300344a:	66 90                	xchg   %ax,%ax

0300344c <__malloc_lock>:
 300344c:	c3                   	ret    
 300344d:	8d 76 00             	lea    0x0(%esi),%esi

03003450 <__malloc_unlock>:
 3003450:	c3                   	ret    
 3003451:	66 90                	xchg   %ax,%ax
 3003453:	90                   	nop

03003454 <_malloc_r>:
 3003454:	55                   	push   %ebp
 3003455:	57                   	push   %edi
 3003456:	56                   	push   %esi
 3003457:	53                   	push   %ebx
 3003458:	83 ec 1c             	sub    $0x1c,%esp
 300345b:	8b 54 24 34          	mov    0x34(%esp),%edx
 300345f:	8d 42 0b             	lea    0xb(%edx),%eax
 3003462:	83 f8 16             	cmp    $0x16,%eax
 3003465:	77 71                	ja     30034d8 <_malloc_r+0x84>
 3003467:	83 fa 10             	cmp    $0x10,%edx
 300346a:	0f 87 6c 02 00 00    	ja     30036dc <_malloc_r+0x288>
 3003470:	83 ec 0c             	sub    $0xc,%esp
 3003473:	ff 74 24 3c          	pushl  0x3c(%esp)
 3003477:	e8 d0 ff ff ff       	call   300344c <__malloc_lock>
 300347c:	83 c4 10             	add    $0x10,%esp
 300347f:	b9 02 00 00 00       	mov    $0x2,%ecx
 3003484:	b8 18 00 00 00       	mov    $0x18,%eax
 3003489:	bd 10 00 00 00       	mov    $0x10,%ebp
 300348e:	8b 98 c4 74 00 03    	mov    0x30074c4(%eax),%ebx
 3003494:	8d 90 b8 74 00 03    	lea    0x30074b8(%eax),%edx
 300349a:	05 c0 74 00 03       	add    $0x30074c0,%eax
 300349f:	39 d3                	cmp    %edx,%ebx
 30034a1:	0f 84 61 02 00 00    	je     3003708 <_malloc_r+0x2b4>
 30034a7:	8b 43 04             	mov    0x4(%ebx),%eax
 30034aa:	83 e0 fc             	and    $0xfffffffc,%eax
 30034ad:	8b 53 0c             	mov    0xc(%ebx),%edx
 30034b0:	8b 4b 08             	mov    0x8(%ebx),%ecx
 30034b3:	89 51 0c             	mov    %edx,0xc(%ecx)
 30034b6:	89 4a 08             	mov    %ecx,0x8(%edx)
 30034b9:	83 4c 03 04 01       	orl    $0x1,0x4(%ebx,%eax,1)
 30034be:	83 ec 0c             	sub    $0xc,%esp
 30034c1:	ff 74 24 3c          	pushl  0x3c(%esp)
 30034c5:	e8 86 ff ff ff       	call   3003450 <__malloc_unlock>
 30034ca:	8d 43 08             	lea    0x8(%ebx),%eax
 30034cd:	83 c4 10             	add    $0x10,%esp
 30034d0:	83 c4 1c             	add    $0x1c,%esp
 30034d3:	5b                   	pop    %ebx
 30034d4:	5e                   	pop    %esi
 30034d5:	5f                   	pop    %edi
 30034d6:	5d                   	pop    %ebp
 30034d7:	c3                   	ret    
 30034d8:	83 e0 f8             	and    $0xfffffff8,%eax
 30034db:	89 c5                	mov    %eax,%ebp
 30034dd:	0f 88 f9 01 00 00    	js     30036dc <_malloc_r+0x288>
 30034e3:	39 c2                	cmp    %eax,%edx
 30034e5:	0f 87 f1 01 00 00    	ja     30036dc <_malloc_r+0x288>
 30034eb:	83 ec 0c             	sub    $0xc,%esp
 30034ee:	ff 74 24 3c          	pushl  0x3c(%esp)
 30034f2:	e8 55 ff ff ff       	call   300344c <__malloc_lock>
 30034f7:	83 c4 10             	add    $0x10,%esp
 30034fa:	81 fd f7 01 00 00    	cmp    $0x1f7,%ebp
 3003500:	0f 86 aa 04 00 00    	jbe    30039b0 <_malloc_r+0x55c>
 3003506:	89 e8                	mov    %ebp,%eax
 3003508:	c1 e8 09             	shr    $0x9,%eax
 300350b:	0f 84 df 01 00 00    	je     30036f0 <_malloc_r+0x29c>
 3003511:	83 f8 04             	cmp    $0x4,%eax
 3003514:	0f 87 12 04 00 00    	ja     300392c <_malloc_r+0x4d8>
 300351a:	89 e8                	mov    %ebp,%eax
 300351c:	c1 e8 06             	shr    $0x6,%eax
 300351f:	8d 70 38             	lea    0x38(%eax),%esi
 3003522:	8d 78 39             	lea    0x39(%eax),%edi
 3003525:	89 7c 24 04          	mov    %edi,0x4(%esp)
 3003529:	8d 04 c5 c8 01 00 00 	lea    0x1c8(,%eax,8),%eax
 3003530:	8d 88 b8 74 00 03    	lea    0x30074b8(%eax),%ecx
 3003536:	8b 98 c4 74 00 03    	mov    0x30074c4(%eax),%ebx
 300353c:	39 d9                	cmp    %ebx,%ecx
 300353e:	75 13                	jne    3003553 <_malloc_r+0xff>
 3003540:	eb 24                	jmp    3003566 <_malloc_r+0x112>
 3003542:	66 90                	xchg   %ax,%ax
 3003544:	85 d2                	test   %edx,%edx
 3003546:	0f 89 61 ff ff ff    	jns    30034ad <_malloc_r+0x59>
 300354c:	8b 5b 0c             	mov    0xc(%ebx),%ebx
 300354f:	39 d9                	cmp    %ebx,%ecx
 3003551:	74 13                	je     3003566 <_malloc_r+0x112>
 3003553:	8b 43 04             	mov    0x4(%ebx),%eax
 3003556:	83 e0 fc             	and    $0xfffffffc,%eax
 3003559:	89 c2                	mov    %eax,%edx
 300355b:	29 ea                	sub    %ebp,%edx
 300355d:	83 fa 0f             	cmp    $0xf,%edx
 3003560:	7e e2                	jle    3003544 <_malloc_r+0xf0>
 3003562:	89 74 24 04          	mov    %esi,0x4(%esp)
 3003566:	8b 1d d0 74 00 03    	mov    0x30074d0,%ebx
 300356c:	81 fb c8 74 00 03    	cmp    $0x30074c8,%ebx
 3003572:	0f 84 b4 01 00 00    	je     300372c <_malloc_r+0x2d8>
 3003578:	8b 4b 04             	mov    0x4(%ebx),%ecx
 300357b:	83 e1 fc             	and    $0xfffffffc,%ecx
 300357e:	89 c8                	mov    %ecx,%eax
 3003580:	29 e8                	sub    %ebp,%eax
 3003582:	83 f8 0f             	cmp    $0xf,%eax
 3003585:	0f 8f 41 04 00 00    	jg     30039cc <_malloc_r+0x578>
 300358b:	c7 05 d4 74 00 03 c8 	movl   $0x30074c8,0x30074d4
 3003592:	74 00 03 
 3003595:	c7 05 d0 74 00 03 c8 	movl   $0x30074c8,0x30074d0
 300359c:	74 00 03 
 300359f:	85 c0                	test   %eax,%eax
 30035a1:	0f 89 19 04 00 00    	jns    30039c0 <_malloc_r+0x56c>
 30035a7:	89 c8                	mov    %ecx,%eax
 30035a9:	81 f9 ff 01 00 00    	cmp    $0x1ff,%ecx
 30035af:	0f 87 13 03 00 00    	ja     30038c8 <_malloc_r+0x474>
 30035b5:	c1 e8 03             	shr    $0x3,%eax
 30035b8:	c1 e9 05             	shr    $0x5,%ecx
 30035bb:	ba 01 00 00 00       	mov    $0x1,%edx
 30035c0:	d3 e2                	shl    %cl,%edx
 30035c2:	0b 15 c4 74 00 03    	or     0x30074c4,%edx
 30035c8:	89 15 c4 74 00 03    	mov    %edx,0x30074c4
 30035ce:	8d 04 c5 08 00 00 00 	lea    0x8(,%eax,8),%eax
 30035d5:	8b 88 c0 74 00 03    	mov    0x30074c0(%eax),%ecx
 30035db:	8d b0 b8 74 00 03    	lea    0x30074b8(%eax),%esi
 30035e1:	89 73 0c             	mov    %esi,0xc(%ebx)
 30035e4:	89 4b 08             	mov    %ecx,0x8(%ebx)
 30035e7:	89 98 c0 74 00 03    	mov    %ebx,0x30074c0(%eax)
 30035ed:	89 59 0c             	mov    %ebx,0xc(%ecx)
 30035f0:	8b 74 24 04          	mov    0x4(%esp),%esi
 30035f4:	89 f1                	mov    %esi,%ecx
 30035f6:	c1 f9 02             	sar    $0x2,%ecx
 30035f9:	b8 01 00 00 00       	mov    $0x1,%eax
 30035fe:	d3 e0                	shl    %cl,%eax
 3003600:	89 c7                	mov    %eax,%edi
 3003602:	39 d0                	cmp    %edx,%eax
 3003604:	0f 87 2e 01 00 00    	ja     3003738 <_malloc_r+0x2e4>
 300360a:	85 d0                	test   %edx,%eax
 300360c:	75 1f                	jne    300362d <_malloc_r+0x1d9>
 300360e:	89 f0                	mov    %esi,%eax
 3003610:	83 e0 fc             	and    $0xfffffffc,%eax
 3003613:	83 c0 04             	add    $0x4,%eax
 3003616:	89 44 24 04          	mov    %eax,0x4(%esp)
 300361a:	01 ff                	add    %edi,%edi
 300361c:	85 d7                	test   %edx,%edi
 300361e:	75 0d                	jne    300362d <_malloc_r+0x1d9>
 3003620:	83 c0 04             	add    $0x4,%eax
 3003623:	01 ff                	add    %edi,%edi
 3003625:	85 d7                	test   %edx,%edi
 3003627:	74 f7                	je     3003620 <_malloc_r+0x1cc>
 3003629:	89 44 24 04          	mov    %eax,0x4(%esp)
 300362d:	8b 44 24 04          	mov    0x4(%esp),%eax
 3003631:	8d 34 c5 c0 74 00 03 	lea    0x30074c0(,%eax,8),%esi
 3003638:	89 74 24 0c          	mov    %esi,0xc(%esp)
 300363c:	89 44 24 08          	mov    %eax,0x8(%esp)
 3003640:	8b 46 0c             	mov    0xc(%esi),%eax
 3003643:	eb 23                	jmp    3003668 <_malloc_r+0x214>
 3003645:	8d 76 00             	lea    0x0(%esi),%esi
 3003648:	8b 50 04             	mov    0x4(%eax),%edx
 300364b:	83 e2 fc             	and    $0xfffffffc,%edx
 300364e:	89 d1                	mov    %edx,%ecx
 3003650:	29 e9                	sub    %ebp,%ecx
 3003652:	89 c3                	mov    %eax,%ebx
 3003654:	8b 40 0c             	mov    0xc(%eax),%eax
 3003657:	83 f9 0f             	cmp    $0xf,%ecx
 300365a:	0f 8f fc 02 00 00    	jg     300395c <_malloc_r+0x508>
 3003660:	85 c9                	test   %ecx,%ecx
 3003662:	0f 89 34 03 00 00    	jns    300399c <_malloc_r+0x548>
 3003668:	39 c6                	cmp    %eax,%esi
 300366a:	75 dc                	jne    3003648 <_malloc_r+0x1f4>
 300366c:	83 c6 08             	add    $0x8,%esi
 300366f:	ff 44 24 08          	incl   0x8(%esp)
 3003673:	8b 44 24 08          	mov    0x8(%esp),%eax
 3003677:	a8 03                	test   $0x3,%al
 3003679:	75 c5                	jne    3003640 <_malloc_r+0x1ec>
 300367b:	8b 44 24 0c          	mov    0xc(%esp),%eax
 300367f:	8b 54 24 04          	mov    0x4(%esp),%edx
 3003683:	eb 0d                	jmp    3003692 <_malloc_r+0x23e>
 3003685:	4a                   	dec    %edx
 3003686:	83 e8 08             	sub    $0x8,%eax
 3003689:	39 40 08             	cmp    %eax,0x8(%eax)
 300368c:	0f 85 7d 05 00 00    	jne    3003c0f <_malloc_r+0x7bb>
 3003692:	f6 c2 03             	test   $0x3,%dl
 3003695:	75 ee                	jne    3003685 <_malloc_r+0x231>
 3003697:	89 f8                	mov    %edi,%eax
 3003699:	f7 d0                	not    %eax
 300369b:	23 05 c4 74 00 03    	and    0x30074c4,%eax
 30036a1:	a3 c4 74 00 03       	mov    %eax,0x30074c4
 30036a6:	01 ff                	add    %edi,%edi
 30036a8:	39 c7                	cmp    %eax,%edi
 30036aa:	0f 87 88 00 00 00    	ja     3003738 <_malloc_r+0x2e4>
 30036b0:	85 ff                	test   %edi,%edi
 30036b2:	0f 84 80 00 00 00    	je     3003738 <_malloc_r+0x2e4>
 30036b8:	85 c7                	test   %eax,%edi
 30036ba:	75 11                	jne    30036cd <_malloc_r+0x279>
 30036bc:	8b 54 24 08          	mov    0x8(%esp),%edx
 30036c0:	83 c2 04             	add    $0x4,%edx
 30036c3:	01 ff                	add    %edi,%edi
 30036c5:	85 c7                	test   %eax,%edi
 30036c7:	74 f7                	je     30036c0 <_malloc_r+0x26c>
 30036c9:	89 54 24 08          	mov    %edx,0x8(%esp)
 30036cd:	8b 44 24 08          	mov    0x8(%esp),%eax
 30036d1:	89 44 24 04          	mov    %eax,0x4(%esp)
 30036d5:	e9 53 ff ff ff       	jmp    300362d <_malloc_r+0x1d9>
 30036da:	66 90                	xchg   %ax,%ax
 30036dc:	8b 44 24 30          	mov    0x30(%esp),%eax
 30036e0:	c7 00 0c 00 00 00    	movl   $0xc,(%eax)
 30036e6:	31 c0                	xor    %eax,%eax
 30036e8:	83 c4 1c             	add    $0x1c,%esp
 30036eb:	5b                   	pop    %ebx
 30036ec:	5e                   	pop    %esi
 30036ed:	5f                   	pop    %edi
 30036ee:	5d                   	pop    %ebp
 30036ef:	c3                   	ret    
 30036f0:	b8 00 02 00 00       	mov    $0x200,%eax
 30036f5:	c7 44 24 04 40 00 00 	movl   $0x40,0x4(%esp)
 30036fc:	00 
 30036fd:	be 3f 00 00 00       	mov    $0x3f,%esi
 3003702:	e9 29 fe ff ff       	jmp    3003530 <_malloc_r+0xdc>
 3003707:	90                   	nop
 3003708:	8b 58 0c             	mov    0xc(%eax),%ebx
 300370b:	39 d8                	cmp    %ebx,%eax
 300370d:	0f 85 94 fd ff ff    	jne    30034a7 <_malloc_r+0x53>
 3003713:	8d 41 02             	lea    0x2(%ecx),%eax
 3003716:	89 44 24 04          	mov    %eax,0x4(%esp)
 300371a:	8b 1d d0 74 00 03    	mov    0x30074d0,%ebx
 3003720:	81 fb c8 74 00 03    	cmp    $0x30074c8,%ebx
 3003726:	0f 85 4c fe ff ff    	jne    3003578 <_malloc_r+0x124>
 300372c:	8b 15 c4 74 00 03    	mov    0x30074c4,%edx
 3003732:	e9 b9 fe ff ff       	jmp    30035f0 <_malloc_r+0x19c>
 3003737:	90                   	nop
 3003738:	8b 1d c8 74 00 03    	mov    0x30074c8,%ebx
 300373e:	8b 43 04             	mov    0x4(%ebx),%eax
 3003741:	83 e0 fc             	and    $0xfffffffc,%eax
 3003744:	89 44 24 04          	mov    %eax,0x4(%esp)
 3003748:	39 c5                	cmp    %eax,%ebp
 300374a:	77 0b                	ja     3003757 <_malloc_r+0x303>
 300374c:	29 e8                	sub    %ebp,%eax
 300374e:	83 f8 0f             	cmp    $0xf,%eax
 3003751:	0f 8f 55 01 00 00    	jg     30038ac <_malloc_r+0x458>
 3003757:	8b 44 24 04          	mov    0x4(%esp),%eax
 300375b:	8d 34 03             	lea    (%ebx,%eax,1),%esi
 300375e:	8b 3d 70 7d 00 03    	mov    0x3007d70,%edi
 3003764:	01 ef                	add    %ebp,%edi
 3003766:	83 3d a0 74 00 03 ff 	cmpl   $0xffffffff,0x30074a0
 300376d:	0f 84 fb 02 00 00    	je     3003a6e <_malloc_r+0x61a>
 3003773:	81 c7 0f 10 00 00    	add    $0x100f,%edi
 3003779:	81 e7 00 f0 ff ff    	and    $0xfffff000,%edi
 300377f:	83 ec 08             	sub    $0x8,%esp
 3003782:	57                   	push   %edi
 3003783:	ff 74 24 3c          	pushl  0x3c(%esp)
 3003787:	e8 54 08 00 00       	call   3003fe0 <_sbrk_r>
 300378c:	89 c2                	mov    %eax,%edx
 300378e:	83 c4 10             	add    $0x10,%esp
 3003791:	83 f8 ff             	cmp    $0xffffffff,%eax
 3003794:	0f 84 8a 02 00 00    	je     3003a24 <_malloc_r+0x5d0>
 300379a:	39 c6                	cmp    %eax,%esi
 300379c:	0f 87 76 02 00 00    	ja     3003a18 <_malloc_r+0x5c4>
 30037a2:	a1 40 7d 00 03       	mov    0x3007d40,%eax
 30037a7:	01 f8                	add    %edi,%eax
 30037a9:	89 c1                	mov    %eax,%ecx
 30037ab:	a3 40 7d 00 03       	mov    %eax,0x3007d40
 30037b0:	39 d6                	cmp    %edx,%esi
 30037b2:	0f 84 67 03 00 00    	je     3003b1f <_malloc_r+0x6cb>
 30037b8:	83 3d a0 74 00 03 ff 	cmpl   $0xffffffff,0x30074a0
 30037bf:	0f 84 7b 03 00 00    	je     3003b40 <_malloc_r+0x6ec>
 30037c5:	89 d0                	mov    %edx,%eax
 30037c7:	29 f0                	sub    %esi,%eax
 30037c9:	01 c8                	add    %ecx,%eax
 30037cb:	a3 40 7d 00 03       	mov    %eax,0x3007d40
 30037d0:	89 d1                	mov    %edx,%ecx
 30037d2:	83 e1 07             	and    $0x7,%ecx
 30037d5:	0f 84 ba 02 00 00    	je     3003a95 <_malloc_r+0x641>
 30037db:	89 d0                	mov    %edx,%eax
 30037dd:	29 c8                	sub    %ecx,%eax
 30037df:	8d 50 08             	lea    0x8(%eax),%edx
 30037e2:	89 54 24 0c          	mov    %edx,0xc(%esp)
 30037e6:	8d 7c 07 08          	lea    0x8(%edi,%eax,1),%edi
 30037ea:	b8 08 10 00 00       	mov    $0x1008,%eax
 30037ef:	29 c8                	sub    %ecx,%eax
 30037f1:	89 4c 24 08          	mov    %ecx,0x8(%esp)
 30037f5:	29 f8                	sub    %edi,%eax
 30037f7:	25 ff 0f 00 00       	and    $0xfff,%eax
 30037fc:	89 c6                	mov    %eax,%esi
 30037fe:	83 ec 08             	sub    $0x8,%esp
 3003801:	50                   	push   %eax
 3003802:	ff 74 24 3c          	pushl  0x3c(%esp)
 3003806:	e8 d5 07 00 00       	call   3003fe0 <_sbrk_r>
 300380b:	83 c4 10             	add    $0x10,%esp
 300380e:	83 f8 ff             	cmp    $0xffffffff,%eax
 3003811:	8b 4c 24 08          	mov    0x8(%esp),%ecx
 3003815:	8b 54 24 0c          	mov    0xc(%esp),%edx
 3003819:	0f 84 7c 03 00 00    	je     3003b9b <_malloc_r+0x747>
 300381f:	29 d0                	sub    %edx,%eax
 3003821:	8d 3c 30             	lea    (%eax,%esi,1),%edi
 3003824:	a1 40 7d 00 03       	mov    0x3007d40,%eax
 3003829:	01 f0                	add    %esi,%eax
 300382b:	a3 40 7d 00 03       	mov    %eax,0x3007d40
 3003830:	89 15 c8 74 00 03    	mov    %edx,0x30074c8
 3003836:	83 cf 01             	or     $0x1,%edi
 3003839:	89 7a 04             	mov    %edi,0x4(%edx)
 300383c:	81 fb c0 74 00 03    	cmp    $0x30074c0,%ebx
 3003842:	0f 84 03 03 00 00    	je     3003b4b <_malloc_r+0x6f7>
 3003848:	83 7c 24 04 0f       	cmpl   $0xf,0x4(%esp)
 300384d:	0f 86 ff 02 00 00    	jbe    3003b52 <_malloc_r+0x6fe>
 3003853:	8b 4c 24 04          	mov    0x4(%esp),%ecx
 3003857:	83 e9 0c             	sub    $0xc,%ecx
 300385a:	89 ce                	mov    %ecx,%esi
 300385c:	83 e6 f8             	and    $0xfffffff8,%esi
 300385f:	8b 4b 04             	mov    0x4(%ebx),%ecx
 3003862:	83 e1 01             	and    $0x1,%ecx
 3003865:	09 f1                	or     %esi,%ecx
 3003867:	89 4b 04             	mov    %ecx,0x4(%ebx)
 300386a:	c7 44 33 04 05 00 00 	movl   $0x5,0x4(%ebx,%esi,1)
 3003871:	00 
 3003872:	c7 44 33 08 05 00 00 	movl   $0x5,0x8(%ebx,%esi,1)
 3003879:	00 
 300387a:	83 fe 0f             	cmp    $0xf,%esi
 300387d:	0f 87 25 03 00 00    	ja     3003ba8 <_malloc_r+0x754>
 3003883:	8b 7a 04             	mov    0x4(%edx),%edi
 3003886:	89 d3                	mov    %edx,%ebx
 3003888:	39 05 6c 7d 00 03    	cmp    %eax,0x3007d6c
 300388e:	73 05                	jae    3003895 <_malloc_r+0x441>
 3003890:	a3 6c 7d 00 03       	mov    %eax,0x3007d6c
 3003895:	39 05 68 7d 00 03    	cmp    %eax,0x3007d68
 300389b:	0f 83 8c 01 00 00    	jae    3003a2d <_malloc_r+0x5d9>
 30038a1:	a3 68 7d 00 03       	mov    %eax,0x3007d68
 30038a6:	e9 82 01 00 00       	jmp    3003a2d <_malloc_r+0x5d9>
 30038ab:	90                   	nop
 30038ac:	89 ea                	mov    %ebp,%edx
 30038ae:	83 ca 01             	or     $0x1,%edx
 30038b1:	89 53 04             	mov    %edx,0x4(%ebx)
 30038b4:	8d 14 2b             	lea    (%ebx,%ebp,1),%edx
 30038b7:	89 15 c8 74 00 03    	mov    %edx,0x30074c8
 30038bd:	83 c8 01             	or     $0x1,%eax
 30038c0:	89 42 04             	mov    %eax,0x4(%edx)
 30038c3:	e9 f6 fb ff ff       	jmp    30034be <_malloc_r+0x6a>
 30038c8:	c1 e8 09             	shr    $0x9,%eax
 30038cb:	81 f9 ff 09 00 00    	cmp    $0x9ff,%ecx
 30038d1:	0f 86 2d 01 00 00    	jbe    3003a04 <_malloc_r+0x5b0>
 30038d7:	83 f8 14             	cmp    $0x14,%eax
 30038da:	0f 87 e9 01 00 00    	ja     3003ac9 <_malloc_r+0x675>
 30038e0:	8d 50 5b             	lea    0x5b(%eax),%edx
 30038e3:	8d 04 c5 e0 02 00 00 	lea    0x2e0(,%eax,8),%eax
 30038ea:	8d b0 b8 74 00 03    	lea    0x30074b8(%eax),%esi
 30038f0:	8b 80 c0 74 00 03    	mov    0x30074c0(%eax),%eax
 30038f6:	39 c6                	cmp    %eax,%esi
 30038f8:	0f 84 78 01 00 00    	je     3003a76 <_malloc_r+0x622>
 30038fe:	66 90                	xchg   %ax,%ax
 3003900:	8b 50 04             	mov    0x4(%eax),%edx
 3003903:	83 e2 fc             	and    $0xfffffffc,%edx
 3003906:	39 ca                	cmp    %ecx,%edx
 3003908:	76 07                	jbe    3003911 <_malloc_r+0x4bd>
 300390a:	8b 40 08             	mov    0x8(%eax),%eax
 300390d:	39 c6                	cmp    %eax,%esi
 300390f:	75 ef                	jne    3003900 <_malloc_r+0x4ac>
 3003911:	8b 70 0c             	mov    0xc(%eax),%esi
 3003914:	8b 15 c4 74 00 03    	mov    0x30074c4,%edx
 300391a:	89 73 0c             	mov    %esi,0xc(%ebx)
 300391d:	89 43 08             	mov    %eax,0x8(%ebx)
 3003920:	89 5e 08             	mov    %ebx,0x8(%esi)
 3003923:	89 58 0c             	mov    %ebx,0xc(%eax)
 3003926:	e9 c5 fc ff ff       	jmp    30035f0 <_malloc_r+0x19c>
 300392b:	90                   	nop
 300392c:	83 f8 14             	cmp    $0x14,%eax
 300392f:	0f 86 23 01 00 00    	jbe    3003a58 <_malloc_r+0x604>
 3003935:	83 f8 54             	cmp    $0x54,%eax
 3003938:	0f 87 a8 01 00 00    	ja     3003ae6 <_malloc_r+0x692>
 300393e:	89 e8                	mov    %ebp,%eax
 3003940:	c1 e8 0c             	shr    $0xc,%eax
 3003943:	8d 70 6e             	lea    0x6e(%eax),%esi
 3003946:	8d 78 6f             	lea    0x6f(%eax),%edi
 3003949:	89 7c 24 04          	mov    %edi,0x4(%esp)
 300394d:	8d 04 c5 78 03 00 00 	lea    0x378(,%eax,8),%eax
 3003954:	e9 d7 fb ff ff       	jmp    3003530 <_malloc_r+0xdc>
 3003959:	8d 76 00             	lea    0x0(%esi),%esi
 300395c:	8d 34 2b             	lea    (%ebx,%ebp,1),%esi
 300395f:	89 ef                	mov    %ebp,%edi
 3003961:	83 cf 01             	or     $0x1,%edi
 3003964:	89 7b 04             	mov    %edi,0x4(%ebx)
 3003967:	8b 7b 08             	mov    0x8(%ebx),%edi
 300396a:	89 47 0c             	mov    %eax,0xc(%edi)
 300396d:	89 78 08             	mov    %edi,0x8(%eax)
 3003970:	89 35 d4 74 00 03    	mov    %esi,0x30074d4
 3003976:	89 35 d0 74 00 03    	mov    %esi,0x30074d0
 300397c:	c7 46 0c c8 74 00 03 	movl   $0x30074c8,0xc(%esi)
 3003983:	c7 46 08 c8 74 00 03 	movl   $0x30074c8,0x8(%esi)
 300398a:	89 c8                	mov    %ecx,%eax
 300398c:	83 c8 01             	or     $0x1,%eax
 300398f:	89 46 04             	mov    %eax,0x4(%esi)
 3003992:	89 0c 13             	mov    %ecx,(%ebx,%edx,1)
 3003995:	e9 24 fb ff ff       	jmp    30034be <_malloc_r+0x6a>
 300399a:	66 90                	xchg   %ax,%ax
 300399c:	83 4c 13 04 01       	orl    $0x1,0x4(%ebx,%edx,1)
 30039a1:	8b 53 08             	mov    0x8(%ebx),%edx
 30039a4:	89 42 0c             	mov    %eax,0xc(%edx)
 30039a7:	89 50 08             	mov    %edx,0x8(%eax)
 30039aa:	e9 0f fb ff ff       	jmp    30034be <_malloc_r+0x6a>
 30039af:	90                   	nop
 30039b0:	89 e9                	mov    %ebp,%ecx
 30039b2:	c1 e9 03             	shr    $0x3,%ecx
 30039b5:	8d 45 08             	lea    0x8(%ebp),%eax
 30039b8:	e9 d1 fa ff ff       	jmp    300348e <_malloc_r+0x3a>
 30039bd:	8d 76 00             	lea    0x0(%esi),%esi
 30039c0:	83 4c 0b 04 01       	orl    $0x1,0x4(%ebx,%ecx,1)
 30039c5:	e9 f4 fa ff ff       	jmp    30034be <_malloc_r+0x6a>
 30039ca:	66 90                	xchg   %ax,%ax
 30039cc:	8d 14 2b             	lea    (%ebx,%ebp,1),%edx
 30039cf:	89 ee                	mov    %ebp,%esi
 30039d1:	83 ce 01             	or     $0x1,%esi
 30039d4:	89 73 04             	mov    %esi,0x4(%ebx)
 30039d7:	89 15 d4 74 00 03    	mov    %edx,0x30074d4
 30039dd:	89 15 d0 74 00 03    	mov    %edx,0x30074d0
 30039e3:	c7 42 0c c8 74 00 03 	movl   $0x30074c8,0xc(%edx)
 30039ea:	c7 42 08 c8 74 00 03 	movl   $0x30074c8,0x8(%edx)
 30039f1:	89 c6                	mov    %eax,%esi
 30039f3:	83 ce 01             	or     $0x1,%esi
 30039f6:	89 72 04             	mov    %esi,0x4(%edx)
 30039f9:	89 04 0b             	mov    %eax,(%ebx,%ecx,1)
 30039fc:	e9 bd fa ff ff       	jmp    30034be <_malloc_r+0x6a>
 3003a01:	8d 76 00             	lea    0x0(%esi),%esi
 3003a04:	89 c8                	mov    %ecx,%eax
 3003a06:	c1 e8 06             	shr    $0x6,%eax
 3003a09:	8d 50 38             	lea    0x38(%eax),%edx
 3003a0c:	8d 04 c5 c8 01 00 00 	lea    0x1c8(,%eax,8),%eax
 3003a13:	e9 d2 fe ff ff       	jmp    30038ea <_malloc_r+0x496>
 3003a18:	81 fb c0 74 00 03    	cmp    $0x30074c0,%ebx
 3003a1e:	0f 84 e8 00 00 00    	je     3003b0c <_malloc_r+0x6b8>
 3003a24:	8b 1d c8 74 00 03    	mov    0x30074c8,%ebx
 3003a2a:	8b 7b 04             	mov    0x4(%ebx),%edi
 3003a2d:	83 e7 fc             	and    $0xfffffffc,%edi
 3003a30:	89 f8                	mov    %edi,%eax
 3003a32:	29 e8                	sub    %ebp,%eax
 3003a34:	39 fd                	cmp    %edi,%ebp
 3003a36:	77 09                	ja     3003a41 <_malloc_r+0x5ed>
 3003a38:	83 f8 0f             	cmp    $0xf,%eax
 3003a3b:	0f 8f 6b fe ff ff    	jg     30038ac <_malloc_r+0x458>
 3003a41:	83 ec 0c             	sub    $0xc,%esp
 3003a44:	ff 74 24 3c          	pushl  0x3c(%esp)
 3003a48:	e8 03 fa ff ff       	call   3003450 <__malloc_unlock>
 3003a4d:	83 c4 10             	add    $0x10,%esp
 3003a50:	31 c0                	xor    %eax,%eax
 3003a52:	e9 91 fc ff ff       	jmp    30036e8 <_malloc_r+0x294>
 3003a57:	90                   	nop
 3003a58:	8d 70 5b             	lea    0x5b(%eax),%esi
 3003a5b:	8d 78 5c             	lea    0x5c(%eax),%edi
 3003a5e:	89 7c 24 04          	mov    %edi,0x4(%esp)
 3003a62:	8d 04 c5 e0 02 00 00 	lea    0x2e0(,%eax,8),%eax
 3003a69:	e9 c2 fa ff ff       	jmp    3003530 <_malloc_r+0xdc>
 3003a6e:	83 c7 10             	add    $0x10,%edi
 3003a71:	e9 09 fd ff ff       	jmp    300377f <_malloc_r+0x32b>
 3003a76:	89 d1                	mov    %edx,%ecx
 3003a78:	c1 f9 02             	sar    $0x2,%ecx
 3003a7b:	bf 01 00 00 00       	mov    $0x1,%edi
 3003a80:	d3 e7                	shl    %cl,%edi
 3003a82:	8b 15 c4 74 00 03    	mov    0x30074c4,%edx
 3003a88:	09 fa                	or     %edi,%edx
 3003a8a:	89 15 c4 74 00 03    	mov    %edx,0x30074c4
 3003a90:	e9 85 fe ff ff       	jmp    300391a <_malloc_r+0x4c6>
 3003a95:	8d 04 3a             	lea    (%edx,%edi,1),%eax
 3003a98:	89 54 24 08          	mov    %edx,0x8(%esp)
 3003a9c:	f7 d8                	neg    %eax
 3003a9e:	25 ff 0f 00 00       	and    $0xfff,%eax
 3003aa3:	89 c6                	mov    %eax,%esi
 3003aa5:	83 ec 08             	sub    $0x8,%esp
 3003aa8:	50                   	push   %eax
 3003aa9:	ff 74 24 3c          	pushl  0x3c(%esp)
 3003aad:	e8 2e 05 00 00       	call   3003fe0 <_sbrk_r>
 3003ab2:	83 c4 10             	add    $0x10,%esp
 3003ab5:	83 f8 ff             	cmp    $0xffffffff,%eax
 3003ab8:	8b 54 24 08          	mov    0x8(%esp),%edx
 3003abc:	0f 85 5d fd ff ff    	jne    300381f <_malloc_r+0x3cb>
 3003ac2:	31 f6                	xor    %esi,%esi
 3003ac4:	e9 5b fd ff ff       	jmp    3003824 <_malloc_r+0x3d0>
 3003ac9:	83 f8 54             	cmp    $0x54,%eax
 3003acc:	0f 87 8c 00 00 00    	ja     3003b5e <_malloc_r+0x70a>
 3003ad2:	89 c8                	mov    %ecx,%eax
 3003ad4:	c1 e8 0c             	shr    $0xc,%eax
 3003ad7:	8d 50 6e             	lea    0x6e(%eax),%edx
 3003ada:	8d 04 c5 78 03 00 00 	lea    0x378(,%eax,8),%eax
 3003ae1:	e9 04 fe ff ff       	jmp    30038ea <_malloc_r+0x496>
 3003ae6:	3d 54 01 00 00       	cmp    $0x154,%eax
 3003aeb:	0f 87 88 00 00 00    	ja     3003b79 <_malloc_r+0x725>
 3003af1:	89 e8                	mov    %ebp,%eax
 3003af3:	c1 e8 0f             	shr    $0xf,%eax
 3003af6:	8d 70 77             	lea    0x77(%eax),%esi
 3003af9:	8d 78 78             	lea    0x78(%eax),%edi
 3003afc:	89 7c 24 04          	mov    %edi,0x4(%esp)
 3003b00:	8d 04 c5 c0 03 00 00 	lea    0x3c0(,%eax,8),%eax
 3003b07:	e9 24 fa ff ff       	jmp    3003530 <_malloc_r+0xdc>
 3003b0c:	8b 0d 40 7d 00 03    	mov    0x3007d40,%ecx
 3003b12:	01 f9                	add    %edi,%ecx
 3003b14:	89 0d 40 7d 00 03    	mov    %ecx,0x3007d40
 3003b1a:	e9 99 fc ff ff       	jmp    30037b8 <_malloc_r+0x364>
 3003b1f:	f7 c6 ff 0f 00 00    	test   $0xfff,%esi
 3003b25:	0f 85 8d fc ff ff    	jne    30037b8 <_malloc_r+0x364>
 3003b2b:	8b 1d c8 74 00 03    	mov    0x30074c8,%ebx
 3003b31:	03 7c 24 04          	add    0x4(%esp),%edi
 3003b35:	83 cf 01             	or     $0x1,%edi
 3003b38:	89 7b 04             	mov    %edi,0x4(%ebx)
 3003b3b:	e9 48 fd ff ff       	jmp    3003888 <_malloc_r+0x434>
 3003b40:	89 15 a0 74 00 03    	mov    %edx,0x30074a0
 3003b46:	e9 85 fc ff ff       	jmp    30037d0 <_malloc_r+0x37c>
 3003b4b:	89 d3                	mov    %edx,%ebx
 3003b4d:	e9 36 fd ff ff       	jmp    3003888 <_malloc_r+0x434>
 3003b52:	c7 42 04 01 00 00 00 	movl   $0x1,0x4(%edx)
 3003b59:	e9 e3 fe ff ff       	jmp    3003a41 <_malloc_r+0x5ed>
 3003b5e:	3d 54 01 00 00       	cmp    $0x154,%eax
 3003b63:	77 69                	ja     3003bce <_malloc_r+0x77a>
 3003b65:	89 c8                	mov    %ecx,%eax
 3003b67:	c1 e8 0f             	shr    $0xf,%eax
 3003b6a:	8d 50 77             	lea    0x77(%eax),%edx
 3003b6d:	8d 04 c5 c0 03 00 00 	lea    0x3c0(,%eax,8),%eax
 3003b74:	e9 71 fd ff ff       	jmp    30038ea <_malloc_r+0x496>
 3003b79:	3d 54 05 00 00       	cmp    $0x554,%eax
 3003b7e:	77 69                	ja     3003be9 <_malloc_r+0x795>
 3003b80:	89 e8                	mov    %ebp,%eax
 3003b82:	c1 e8 12             	shr    $0x12,%eax
 3003b85:	8d 70 7c             	lea    0x7c(%eax),%esi
 3003b88:	8d 78 7d             	lea    0x7d(%eax),%edi
 3003b8b:	89 7c 24 04          	mov    %edi,0x4(%esp)
 3003b8f:	8d 04 c5 e8 03 00 00 	lea    0x3e8(,%eax,8),%eax
 3003b96:	e9 95 f9 ff ff       	jmp    3003530 <_malloc_r+0xdc>
 3003b9b:	8d 7c 0f f8          	lea    -0x8(%edi,%ecx,1),%edi
 3003b9f:	29 d7                	sub    %edx,%edi
 3003ba1:	31 f6                	xor    %esi,%esi
 3003ba3:	e9 7c fc ff ff       	jmp    3003824 <_malloc_r+0x3d0>
 3003ba8:	83 ec 08             	sub    $0x8,%esp
 3003bab:	83 c3 08             	add    $0x8,%ebx
 3003bae:	53                   	push   %ebx
 3003baf:	ff 74 24 3c          	pushl  0x3c(%esp)
 3003bb3:	e8 a0 f5 ff ff       	call   3003158 <_free_r>
 3003bb8:	a1 40 7d 00 03       	mov    0x3007d40,%eax
 3003bbd:	8b 1d c8 74 00 03    	mov    0x30074c8,%ebx
 3003bc3:	8b 7b 04             	mov    0x4(%ebx),%edi
 3003bc6:	83 c4 10             	add    $0x10,%esp
 3003bc9:	e9 ba fc ff ff       	jmp    3003888 <_malloc_r+0x434>
 3003bce:	3d 54 05 00 00       	cmp    $0x554,%eax
 3003bd3:	77 2b                	ja     3003c00 <_malloc_r+0x7ac>
 3003bd5:	89 c8                	mov    %ecx,%eax
 3003bd7:	c1 e8 12             	shr    $0x12,%eax
 3003bda:	8d 50 7c             	lea    0x7c(%eax),%edx
 3003bdd:	8d 04 c5 e8 03 00 00 	lea    0x3e8(,%eax,8),%eax
 3003be4:	e9 01 fd ff ff       	jmp    30038ea <_malloc_r+0x496>
 3003be9:	b8 f8 03 00 00       	mov    $0x3f8,%eax
 3003bee:	c7 44 24 04 7f 00 00 	movl   $0x7f,0x4(%esp)
 3003bf5:	00 
 3003bf6:	be 7e 00 00 00       	mov    $0x7e,%esi
 3003bfb:	e9 30 f9 ff ff       	jmp    3003530 <_malloc_r+0xdc>
 3003c00:	b8 f8 03 00 00       	mov    $0x3f8,%eax
 3003c05:	ba 7e 00 00 00       	mov    $0x7e,%edx
 3003c0a:	e9 db fc ff ff       	jmp    30038ea <_malloc_r+0x496>
 3003c0f:	a1 c4 74 00 03       	mov    0x30074c4,%eax
 3003c14:	e9 8d fa ff ff       	jmp    30036a6 <_malloc_r+0x252>
 3003c19:	66 90                	xchg   %ax,%ax
 3003c1b:	90                   	nop

03003c1c <strlen>:
 3003c1c:	53                   	push   %ebx
 3003c1d:	8b 5c 24 08          	mov    0x8(%esp),%ebx
 3003c21:	89 d8                	mov    %ebx,%eax
 3003c23:	f6 c3 03             	test   $0x3,%bl
 3003c26:	75 09                	jne    3003c31 <strlen+0x15>
 3003c28:	eb 15                	jmp    3003c3f <strlen+0x23>
 3003c2a:	66 90                	xchg   %ax,%ax
 3003c2c:	40                   	inc    %eax
 3003c2d:	a8 03                	test   $0x3,%al
 3003c2f:	74 0e                	je     3003c3f <strlen+0x23>
 3003c31:	80 38 00             	cmpb   $0x0,(%eax)
 3003c34:	75 f6                	jne    3003c2c <strlen+0x10>
 3003c36:	29 d8                	sub    %ebx,%eax
 3003c38:	5b                   	pop    %ebx
 3003c39:	c3                   	ret    
 3003c3a:	66 90                	xchg   %ax,%ax
 3003c3c:	83 c0 04             	add    $0x4,%eax
 3003c3f:	8b 10                	mov    (%eax),%edx
 3003c41:	8d 8a ff fe fe fe    	lea    -0x1010101(%edx),%ecx
 3003c47:	f7 d2                	not    %edx
 3003c49:	21 ca                	and    %ecx,%edx
 3003c4b:	81 e2 80 80 80 80    	and    $0x80808080,%edx
 3003c51:	74 e9                	je     3003c3c <strlen+0x20>
 3003c53:	80 38 00             	cmpb   $0x0,(%eax)
 3003c56:	74 de                	je     3003c36 <strlen+0x1a>
 3003c58:	40                   	inc    %eax
 3003c59:	80 38 00             	cmpb   $0x0,(%eax)
 3003c5c:	75 fa                	jne    3003c58 <strlen+0x3c>
 3003c5e:	29 d8                	sub    %ebx,%eax
 3003c60:	5b                   	pop    %ebx
 3003c61:	c3                   	ret    
 3003c62:	66 90                	xchg   %ax,%ax

03003c64 <memset>:
 3003c64:	56                   	push   %esi
 3003c65:	53                   	push   %ebx
 3003c66:	8b 44 24 0c          	mov    0xc(%esp),%eax
 3003c6a:	8b 5c 24 14          	mov    0x14(%esp),%ebx
 3003c6e:	a8 03                	test   $0x3,%al
 3003c70:	0f 84 9d 00 00 00    	je     3003d13 <memset+0xaf>
 3003c76:	8d 4b ff             	lea    -0x1(%ebx),%ecx
 3003c79:	85 db                	test   %ebx,%ebx
 3003c7b:	0f 84 8b 00 00 00    	je     3003d0c <memset+0xa8>
 3003c81:	8a 5c 24 10          	mov    0x10(%esp),%bl
 3003c85:	89 c2                	mov    %eax,%edx
 3003c87:	eb 09                	jmp    3003c92 <memset+0x2e>
 3003c89:	8d 76 00             	lea    0x0(%esi),%esi
 3003c8c:	49                   	dec    %ecx
 3003c8d:	83 f9 ff             	cmp    $0xffffffff,%ecx
 3003c90:	74 7a                	je     3003d0c <memset+0xa8>
 3003c92:	42                   	inc    %edx
 3003c93:	88 5a ff             	mov    %bl,-0x1(%edx)
 3003c96:	f6 c2 03             	test   $0x3,%dl
 3003c99:	75 f1                	jne    3003c8c <memset+0x28>
 3003c9b:	83 f9 03             	cmp    $0x3,%ecx
 3003c9e:	76 59                	jbe    3003cf9 <memset+0x95>
 3003ca0:	0f b6 74 24 10       	movzbl 0x10(%esp),%esi
 3003ca5:	89 f3                	mov    %esi,%ebx
 3003ca7:	c1 e3 08             	shl    $0x8,%ebx
 3003caa:	09 f3                	or     %esi,%ebx
 3003cac:	89 de                	mov    %ebx,%esi
 3003cae:	c1 e6 10             	shl    $0x10,%esi
 3003cb1:	09 f3                	or     %esi,%ebx
 3003cb3:	83 f9 0f             	cmp    $0xf,%ecx
 3003cb6:	76 61                	jbe    3003d19 <memset+0xb5>
 3003cb8:	8d 71 f0             	lea    -0x10(%ecx),%esi
 3003cbb:	83 e6 f0             	and    $0xfffffff0,%esi
 3003cbe:	8d 74 32 10          	lea    0x10(%edx,%esi,1),%esi
 3003cc2:	66 90                	xchg   %ax,%ax
 3003cc4:	89 1a                	mov    %ebx,(%edx)
 3003cc6:	89 5a 04             	mov    %ebx,0x4(%edx)
 3003cc9:	89 5a 08             	mov    %ebx,0x8(%edx)
 3003ccc:	83 c2 10             	add    $0x10,%edx
 3003ccf:	89 5a fc             	mov    %ebx,-0x4(%edx)
 3003cd2:	39 d6                	cmp    %edx,%esi
 3003cd4:	75 ee                	jne    3003cc4 <memset+0x60>
 3003cd6:	89 ce                	mov    %ecx,%esi
 3003cd8:	83 e6 0f             	and    $0xf,%esi
 3003cdb:	83 e1 0c             	and    $0xc,%ecx
 3003cde:	74 2f                	je     3003d0f <memset+0xab>
 3003ce0:	8d 4e fc             	lea    -0x4(%esi),%ecx
 3003ce3:	c1 e9 02             	shr    $0x2,%ecx
 3003ce6:	8d 4c 8a 04          	lea    0x4(%edx,%ecx,4),%ecx
 3003cea:	83 c2 04             	add    $0x4,%edx
 3003ced:	89 5a fc             	mov    %ebx,-0x4(%edx)
 3003cf0:	39 d1                	cmp    %edx,%ecx
 3003cf2:	75 f6                	jne    3003cea <memset+0x86>
 3003cf4:	83 e6 03             	and    $0x3,%esi
 3003cf7:	89 f1                	mov    %esi,%ecx
 3003cf9:	85 c9                	test   %ecx,%ecx
 3003cfb:	74 0f                	je     3003d0c <memset+0xa8>
 3003cfd:	8a 5c 24 10          	mov    0x10(%esp),%bl
 3003d01:	01 d1                	add    %edx,%ecx
 3003d03:	90                   	nop
 3003d04:	42                   	inc    %edx
 3003d05:	88 5a ff             	mov    %bl,-0x1(%edx)
 3003d08:	39 d1                	cmp    %edx,%ecx
 3003d0a:	75 f8                	jne    3003d04 <memset+0xa0>
 3003d0c:	5b                   	pop    %ebx
 3003d0d:	5e                   	pop    %esi
 3003d0e:	c3                   	ret    
 3003d0f:	89 f1                	mov    %esi,%ecx
 3003d11:	eb e6                	jmp    3003cf9 <memset+0x95>
 3003d13:	89 c2                	mov    %eax,%edx
 3003d15:	89 d9                	mov    %ebx,%ecx
 3003d17:	eb 82                	jmp    3003c9b <memset+0x37>
 3003d19:	89 ce                	mov    %ecx,%esi
 3003d1b:	eb c3                	jmp    3003ce0 <memset+0x7c>
 3003d1d:	66 90                	xchg   %ax,%ax
 3003d1f:	90                   	nop

03003d20 <memchr>:
 3003d20:	57                   	push   %edi
 3003d21:	56                   	push   %esi
 3003d22:	53                   	push   %ebx
 3003d23:	8b 44 24 10          	mov    0x10(%esp),%eax
 3003d27:	8b 5c 24 18          	mov    0x18(%esp),%ebx
 3003d2b:	8a 4c 24 14          	mov    0x14(%esp),%cl
 3003d2f:	a8 03                	test   $0x3,%al
 3003d31:	74 1c                	je     3003d4f <memchr+0x2f>
 3003d33:	8d 53 ff             	lea    -0x1(%ebx),%edx
 3003d36:	85 db                	test   %ebx,%ebx
 3003d38:	75 0d                	jne    3003d47 <memchr+0x27>
 3003d3a:	eb 21                	jmp    3003d5d <memchr+0x3d>
 3003d3c:	40                   	inc    %eax
 3003d3d:	a8 03                	test   $0x3,%al
 3003d3f:	74 13                	je     3003d54 <memchr+0x34>
 3003d41:	4a                   	dec    %edx
 3003d42:	83 fa ff             	cmp    $0xffffffff,%edx
 3003d45:	74 16                	je     3003d5d <memchr+0x3d>
 3003d47:	38 08                	cmp    %cl,(%eax)
 3003d49:	75 f1                	jne    3003d3c <memchr+0x1c>
 3003d4b:	5b                   	pop    %ebx
 3003d4c:	5e                   	pop    %esi
 3003d4d:	5f                   	pop    %edi
 3003d4e:	c3                   	ret    
 3003d4f:	89 da                	mov    %ebx,%edx
 3003d51:	8d 76 00             	lea    0x0(%esi),%esi
 3003d54:	83 fa 03             	cmp    $0x3,%edx
 3003d57:	77 1f                	ja     3003d78 <memchr+0x58>
 3003d59:	85 d2                	test   %edx,%edx
 3003d5b:	75 07                	jne    3003d64 <memchr+0x44>
 3003d5d:	31 c0                	xor    %eax,%eax
 3003d5f:	5b                   	pop    %ebx
 3003d60:	5e                   	pop    %esi
 3003d61:	5f                   	pop    %edi
 3003d62:	c3                   	ret    
 3003d63:	90                   	nop
 3003d64:	01 c2                	add    %eax,%edx
 3003d66:	eb 05                	jmp    3003d6d <memchr+0x4d>
 3003d68:	40                   	inc    %eax
 3003d69:	39 c2                	cmp    %eax,%edx
 3003d6b:	74 f0                	je     3003d5d <memchr+0x3d>
 3003d6d:	38 08                	cmp    %cl,(%eax)
 3003d6f:	75 f7                	jne    3003d68 <memchr+0x48>
 3003d71:	5b                   	pop    %ebx
 3003d72:	5e                   	pop    %esi
 3003d73:	5f                   	pop    %edi
 3003d74:	c3                   	ret    
 3003d75:	8d 76 00             	lea    0x0(%esi),%esi
 3003d78:	8b 5c 24 14          	mov    0x14(%esp),%ebx
 3003d7c:	c1 e3 08             	shl    $0x8,%ebx
 3003d7f:	0f b7 f3             	movzwl %bx,%esi
 3003d82:	0f b6 5c 24 14       	movzbl 0x14(%esp),%ebx
 3003d87:	09 f3                	or     %esi,%ebx
 3003d89:	89 de                	mov    %ebx,%esi
 3003d8b:	c1 e6 10             	shl    $0x10,%esi
 3003d8e:	09 de                	or     %ebx,%esi
 3003d90:	8b 18                	mov    (%eax),%ebx
 3003d92:	31 f3                	xor    %esi,%ebx
 3003d94:	8d bb ff fe fe fe    	lea    -0x1010101(%ebx),%edi
 3003d9a:	f7 d3                	not    %ebx
 3003d9c:	21 fb                	and    %edi,%ebx
 3003d9e:	81 e3 80 80 80 80    	and    $0x80808080,%ebx
 3003da4:	75 be                	jne    3003d64 <memchr+0x44>
 3003da6:	83 ea 04             	sub    $0x4,%edx
 3003da9:	83 c0 04             	add    $0x4,%eax
 3003dac:	83 fa 03             	cmp    $0x3,%edx
 3003daf:	77 df                	ja     3003d90 <memchr+0x70>
 3003db1:	eb a6                	jmp    3003d59 <memchr+0x39>
 3003db3:	90                   	nop

03003db4 <_init_signal_r.part.0>:
 3003db4:	53                   	push   %ebx
 3003db5:	83 ec 10             	sub    $0x10,%esp
 3003db8:	89 c3                	mov    %eax,%ebx
 3003dba:	68 80 00 00 00       	push   $0x80
 3003dbf:	50                   	push   %eax
 3003dc0:	e8 8f f6 ff ff       	call   3003454 <_malloc_r>
 3003dc5:	89 83 dc 02 00 00    	mov    %eax,0x2dc(%ebx)
 3003dcb:	83 c4 10             	add    $0x10,%esp
 3003dce:	85 c0                	test   %eax,%eax
 3003dd0:	74 1a                	je     3003dec <_init_signal_r.part.0+0x38>
 3003dd2:	8d 90 80 00 00 00    	lea    0x80(%eax),%edx
 3003dd8:	c7 00 00 00 00 00    	movl   $0x0,(%eax)
 3003dde:	83 c0 04             	add    $0x4,%eax
 3003de1:	39 d0                	cmp    %edx,%eax
 3003de3:	75 f3                	jne    3003dd8 <_init_signal_r.part.0+0x24>
 3003de5:	31 c0                	xor    %eax,%eax
 3003de7:	83 c4 08             	add    $0x8,%esp
 3003dea:	5b                   	pop    %ebx
 3003deb:	c3                   	ret    
 3003dec:	b8 ff ff ff ff       	mov    $0xffffffff,%eax
 3003df1:	eb f4                	jmp    3003de7 <_init_signal_r.part.0+0x33>
 3003df3:	90                   	nop

03003df4 <_init_signal_r>:
 3003df4:	8b 44 24 04          	mov    0x4(%esp),%eax
 3003df8:	8b 90 dc 02 00 00    	mov    0x2dc(%eax),%edx
 3003dfe:	85 d2                	test   %edx,%edx
 3003e00:	74 06                	je     3003e08 <_init_signal_r+0x14>
 3003e02:	31 c0                	xor    %eax,%eax
 3003e04:	c3                   	ret    
 3003e05:	8d 76 00             	lea    0x0(%esi),%esi
 3003e08:	eb aa                	jmp    3003db4 <_init_signal_r.part.0>
 3003e0a:	66 90                	xchg   %ax,%ax

03003e0c <_signal_r>:
 3003e0c:	56                   	push   %esi
 3003e0d:	53                   	push   %ebx
 3003e0e:	51                   	push   %ecx
 3003e0f:	8b 74 24 10          	mov    0x10(%esp),%esi
 3003e13:	8b 5c 24 14          	mov    0x14(%esp),%ebx
 3003e17:	83 fb 1f             	cmp    $0x1f,%ebx
 3003e1a:	77 1c                	ja     3003e38 <_signal_r+0x2c>
 3003e1c:	8b 86 dc 02 00 00    	mov    0x2dc(%esi),%eax
 3003e22:	85 c0                	test   %eax,%eax
 3003e24:	74 22                	je     3003e48 <_signal_r+0x3c>
 3003e26:	8d 14 98             	lea    (%eax,%ebx,4),%edx
 3003e29:	8b 02                	mov    (%edx),%eax
 3003e2b:	8b 4c 24 18          	mov    0x18(%esp),%ecx
 3003e2f:	89 0a                	mov    %ecx,(%edx)
 3003e31:	5a                   	pop    %edx
 3003e32:	5b                   	pop    %ebx
 3003e33:	5e                   	pop    %esi
 3003e34:	c3                   	ret    
 3003e35:	8d 76 00             	lea    0x0(%esi),%esi
 3003e38:	c7 06 16 00 00 00    	movl   $0x16,(%esi)
 3003e3e:	b8 ff ff ff ff       	mov    $0xffffffff,%eax
 3003e43:	5a                   	pop    %edx
 3003e44:	5b                   	pop    %ebx
 3003e45:	5e                   	pop    %esi
 3003e46:	c3                   	ret    
 3003e47:	90                   	nop
 3003e48:	89 f0                	mov    %esi,%eax
 3003e4a:	e8 65 ff ff ff       	call   3003db4 <_init_signal_r.part.0>
 3003e4f:	85 c0                	test   %eax,%eax
 3003e51:	75 09                	jne    3003e5c <_signal_r+0x50>
 3003e53:	8b 86 dc 02 00 00    	mov    0x2dc(%esi),%eax
 3003e59:	eb cb                	jmp    3003e26 <_signal_r+0x1a>
 3003e5b:	90                   	nop
 3003e5c:	b8 ff ff ff ff       	mov    $0xffffffff,%eax
 3003e61:	eb ce                	jmp    3003e31 <_signal_r+0x25>
 3003e63:	90                   	nop

03003e64 <_raise_r>:
 3003e64:	56                   	push   %esi
 3003e65:	53                   	push   %ebx
 3003e66:	51                   	push   %ecx
 3003e67:	8b 74 24 10          	mov    0x10(%esp),%esi
 3003e6b:	8b 5c 24 14          	mov    0x14(%esp),%ebx
 3003e6f:	83 fb 1f             	cmp    $0x1f,%ebx
 3003e72:	77 68                	ja     3003edc <_raise_r+0x78>
 3003e74:	8b 86 dc 02 00 00    	mov    0x2dc(%esi),%eax
 3003e7a:	85 c0                	test   %eax,%eax
 3003e7c:	74 2a                	je     3003ea8 <_raise_r+0x44>
 3003e7e:	8d 14 98             	lea    (%eax,%ebx,4),%edx
 3003e81:	8b 02                	mov    (%edx),%eax
 3003e83:	85 c0                	test   %eax,%eax
 3003e85:	74 21                	je     3003ea8 <_raise_r+0x44>
 3003e87:	83 f8 01             	cmp    $0x1,%eax
 3003e8a:	74 48                	je     3003ed4 <_raise_r+0x70>
 3003e8c:	83 f8 ff             	cmp    $0xffffffff,%eax
 3003e8f:	74 33                	je     3003ec4 <_raise_r+0x60>
 3003e91:	c7 02 00 00 00 00    	movl   $0x0,(%edx)
 3003e97:	83 ec 0c             	sub    $0xc,%esp
 3003e9a:	53                   	push   %ebx
 3003e9b:	ff d0                	call   *%eax
 3003e9d:	83 c4 10             	add    $0x10,%esp
 3003ea0:	31 c0                	xor    %eax,%eax
 3003ea2:	5a                   	pop    %edx
 3003ea3:	5b                   	pop    %ebx
 3003ea4:	5e                   	pop    %esi
 3003ea5:	c3                   	ret    
 3003ea6:	66 90                	xchg   %ax,%ax
 3003ea8:	83 ec 0c             	sub    $0xc,%esp
 3003eab:	56                   	push   %esi
 3003eac:	e8 a3 01 00 00       	call   3004054 <_getpid_r>
 3003eb1:	83 c4 0c             	add    $0xc,%esp
 3003eb4:	53                   	push   %ebx
 3003eb5:	50                   	push   %eax
 3003eb6:	56                   	push   %esi
 3003eb7:	e8 5c 01 00 00       	call   3004018 <_kill_r>
 3003ebc:	83 c4 10             	add    $0x10,%esp
 3003ebf:	5a                   	pop    %edx
 3003ec0:	5b                   	pop    %ebx
 3003ec1:	5e                   	pop    %esi
 3003ec2:	c3                   	ret    
 3003ec3:	90                   	nop
 3003ec4:	c7 06 16 00 00 00    	movl   $0x16,(%esi)
 3003eca:	b8 01 00 00 00       	mov    $0x1,%eax
 3003ecf:	5a                   	pop    %edx
 3003ed0:	5b                   	pop    %ebx
 3003ed1:	5e                   	pop    %esi
 3003ed2:	c3                   	ret    
 3003ed3:	90                   	nop
 3003ed4:	31 c0                	xor    %eax,%eax
 3003ed6:	5a                   	pop    %edx
 3003ed7:	5b                   	pop    %ebx
 3003ed8:	5e                   	pop    %esi
 3003ed9:	c3                   	ret    
 3003eda:	66 90                	xchg   %ax,%ax
 3003edc:	c7 06 16 00 00 00    	movl   $0x16,(%esi)
 3003ee2:	b8 ff ff ff ff       	mov    $0xffffffff,%eax
 3003ee7:	eb b9                	jmp    3003ea2 <_raise_r+0x3e>
 3003ee9:	8d 76 00             	lea    0x0(%esi),%esi

03003eec <__sigtramp_r>:
 3003eec:	56                   	push   %esi
 3003eed:	53                   	push   %ebx
 3003eee:	51                   	push   %ecx
 3003eef:	8b 74 24 10          	mov    0x10(%esp),%esi
 3003ef3:	8b 5c 24 14          	mov    0x14(%esp),%ebx
 3003ef7:	83 fb 1f             	cmp    $0x1f,%ebx
 3003efa:	77 68                	ja     3003f64 <__sigtramp_r+0x78>
 3003efc:	8b 86 dc 02 00 00    	mov    0x2dc(%esi),%eax
 3003f02:	85 c0                	test   %eax,%eax
 3003f04:	74 36                	je     3003f3c <__sigtramp_r+0x50>
 3003f06:	8d 14 98             	lea    (%eax,%ebx,4),%edx
 3003f09:	8b 02                	mov    (%edx),%eax
 3003f0b:	85 c0                	test   %eax,%eax
 3003f0d:	74 21                	je     3003f30 <__sigtramp_r+0x44>
 3003f0f:	83 f8 ff             	cmp    $0xffffffff,%eax
 3003f12:	74 48                	je     3003f5c <__sigtramp_r+0x70>
 3003f14:	83 f8 01             	cmp    $0x1,%eax
 3003f17:	74 37                	je     3003f50 <__sigtramp_r+0x64>
 3003f19:	c7 02 00 00 00 00    	movl   $0x0,(%edx)
 3003f1f:	83 ec 0c             	sub    $0xc,%esp
 3003f22:	53                   	push   %ebx
 3003f23:	ff d0                	call   *%eax
 3003f25:	83 c4 10             	add    $0x10,%esp
 3003f28:	31 c0                	xor    %eax,%eax
 3003f2a:	5a                   	pop    %edx
 3003f2b:	5b                   	pop    %ebx
 3003f2c:	5e                   	pop    %esi
 3003f2d:	c3                   	ret    
 3003f2e:	66 90                	xchg   %ax,%ax
 3003f30:	b8 01 00 00 00       	mov    $0x1,%eax
 3003f35:	5a                   	pop    %edx
 3003f36:	5b                   	pop    %ebx
 3003f37:	5e                   	pop    %esi
 3003f38:	c3                   	ret    
 3003f39:	8d 76 00             	lea    0x0(%esi),%esi
 3003f3c:	89 f0                	mov    %esi,%eax
 3003f3e:	e8 71 fe ff ff       	call   3003db4 <_init_signal_r.part.0>
 3003f43:	85 c0                	test   %eax,%eax
 3003f45:	75 1d                	jne    3003f64 <__sigtramp_r+0x78>
 3003f47:	8b 86 dc 02 00 00    	mov    0x2dc(%esi),%eax
 3003f4d:	eb b7                	jmp    3003f06 <__sigtramp_r+0x1a>
 3003f4f:	90                   	nop
 3003f50:	b8 03 00 00 00       	mov    $0x3,%eax
 3003f55:	5a                   	pop    %edx
 3003f56:	5b                   	pop    %ebx
 3003f57:	5e                   	pop    %esi
 3003f58:	c3                   	ret    
 3003f59:	8d 76 00             	lea    0x0(%esi),%esi
 3003f5c:	b8 02 00 00 00       	mov    $0x2,%eax
 3003f61:	eb c7                	jmp    3003f2a <__sigtramp_r+0x3e>
 3003f63:	90                   	nop
 3003f64:	b8 ff ff ff ff       	mov    $0xffffffff,%eax
 3003f69:	eb bf                	jmp    3003f2a <__sigtramp_r+0x3e>
 3003f6b:	90                   	nop

03003f6c <raise>:
 3003f6c:	83 ec 0c             	sub    $0xc,%esp
 3003f6f:	e8 f8 d1 ff ff       	call   300116c <__getreent>
 3003f74:	83 ec 08             	sub    $0x8,%esp
 3003f77:	ff 74 24 18          	pushl  0x18(%esp)
 3003f7b:	50                   	push   %eax
 3003f7c:	e8 e3 fe ff ff       	call   3003e64 <_raise_r>
 3003f81:	83 c4 1c             	add    $0x1c,%esp
 3003f84:	c3                   	ret    
 3003f85:	8d 76 00             	lea    0x0(%esi),%esi

03003f88 <signal>:
 3003f88:	83 ec 0c             	sub    $0xc,%esp
 3003f8b:	e8 dc d1 ff ff       	call   300116c <__getreent>
 3003f90:	52                   	push   %edx
 3003f91:	ff 74 24 18          	pushl  0x18(%esp)
 3003f95:	ff 74 24 18          	pushl  0x18(%esp)
 3003f99:	50                   	push   %eax
 3003f9a:	e8 6d fe ff ff       	call   3003e0c <_signal_r>
 3003f9f:	83 c4 1c             	add    $0x1c,%esp
 3003fa2:	c3                   	ret    
 3003fa3:	90                   	nop

03003fa4 <_init_signal>:
 3003fa4:	83 ec 0c             	sub    $0xc,%esp
 3003fa7:	e8 c0 d1 ff ff       	call   300116c <__getreent>
 3003fac:	8b 90 dc 02 00 00    	mov    0x2dc(%eax),%edx
 3003fb2:	85 d2                	test   %edx,%edx
 3003fb4:	74 06                	je     3003fbc <_init_signal+0x18>
 3003fb6:	31 c0                	xor    %eax,%eax
 3003fb8:	83 c4 0c             	add    $0xc,%esp
 3003fbb:	c3                   	ret    
 3003fbc:	83 c4 0c             	add    $0xc,%esp
 3003fbf:	e9 f0 fd ff ff       	jmp    3003db4 <_init_signal_r.part.0>

03003fc4 <__sigtramp>:
 3003fc4:	83 ec 0c             	sub    $0xc,%esp
 3003fc7:	e8 a0 d1 ff ff       	call   300116c <__getreent>
 3003fcc:	83 ec 08             	sub    $0x8,%esp
 3003fcf:	ff 74 24 18          	pushl  0x18(%esp)
 3003fd3:	50                   	push   %eax
 3003fd4:	e8 13 ff ff ff       	call   3003eec <__sigtramp_r>
 3003fd9:	83 c4 1c             	add    $0x1c,%esp
 3003fdc:	c3                   	ret    
 3003fdd:	66 90                	xchg   %ax,%ax
 3003fdf:	90                   	nop

03003fe0 <_sbrk_r>:
 3003fe0:	83 ec 18             	sub    $0x18,%esp
 3003fe3:	c7 05 78 7d 00 03 00 	movl   $0x0,0x3007d78
 3003fea:	00 00 00 
 3003fed:	ff 74 24 20          	pushl  0x20(%esp)
 3003ff1:	e8 b2 14 00 00       	call   30054a8 <_sbrk>
 3003ff6:	83 c4 10             	add    $0x10,%esp
 3003ff9:	83 f8 ff             	cmp    $0xffffffff,%eax
 3003ffc:	74 06                	je     3004004 <_sbrk_r+0x24>
 3003ffe:	83 c4 0c             	add    $0xc,%esp
 3004001:	c3                   	ret    
 3004002:	66 90                	xchg   %ax,%ax
 3004004:	8b 15 78 7d 00 03    	mov    0x3007d78,%edx
 300400a:	85 d2                	test   %edx,%edx
 300400c:	74 f0                	je     3003ffe <_sbrk_r+0x1e>
 300400e:	8b 4c 24 10          	mov    0x10(%esp),%ecx
 3004012:	89 11                	mov    %edx,(%ecx)
 3004014:	83 c4 0c             	add    $0xc,%esp
 3004017:	c3                   	ret    

03004018 <_kill_r>:
 3004018:	83 ec 14             	sub    $0x14,%esp
 300401b:	c7 05 78 7d 00 03 00 	movl   $0x0,0x3007d78
 3004022:	00 00 00 
 3004025:	ff 74 24 20          	pushl  0x20(%esp)
 3004029:	ff 74 24 20          	pushl  0x20(%esp)
 300402d:	e8 2a 15 00 00       	call   300555c <_kill>
 3004032:	83 c4 10             	add    $0x10,%esp
 3004035:	83 f8 ff             	cmp    $0xffffffff,%eax
 3004038:	74 06                	je     3004040 <_kill_r+0x28>
 300403a:	83 c4 0c             	add    $0xc,%esp
 300403d:	c3                   	ret    
 300403e:	66 90                	xchg   %ax,%ax
 3004040:	8b 15 78 7d 00 03    	mov    0x3007d78,%edx
 3004046:	85 d2                	test   %edx,%edx
 3004048:	74 f0                	je     300403a <_kill_r+0x22>
 300404a:	8b 4c 24 10          	mov    0x10(%esp),%ecx
 300404e:	89 11                	mov    %edx,(%ecx)
 3004050:	83 c4 0c             	add    $0xc,%esp
 3004053:	c3                   	ret    

03004054 <_getpid_r>:
 3004054:	e9 0b 15 00 00       	jmp    3005564 <_getpid>
 3004059:	66 90                	xchg   %ax,%ax
 300405b:	90                   	nop

0300405c <__swhatbuf_r>:
 300405c:	53                   	push   %ebx
 300405d:	83 ec 48             	sub    $0x48,%esp
 3004060:	8b 5c 24 54          	mov    0x54(%esp),%ebx
 3004064:	0f bf 43 0e          	movswl 0xe(%ebx),%eax
 3004068:	66 85 c0             	test   %ax,%ax
 300406b:	78 43                	js     30040b0 <__swhatbuf_r+0x54>
 300406d:	52                   	push   %edx
 300406e:	8d 54 24 08          	lea    0x8(%esp),%edx
 3004072:	52                   	push   %edx
 3004073:	50                   	push   %eax
 3004074:	ff 74 24 5c          	pushl  0x5c(%esp)
 3004078:	e8 e3 11 00 00       	call   3005260 <_fstat_r>
 300407d:	83 c4 10             	add    $0x10,%esp
 3004080:	85 c0                	test   %eax,%eax
 3004082:	78 2c                	js     30040b0 <__swhatbuf_r+0x54>
 3004084:	8b 44 24 08          	mov    0x8(%esp),%eax
 3004088:	25 00 f0 00 00       	and    $0xf000,%eax
 300408d:	3d 00 20 00 00       	cmp    $0x2000,%eax
 3004092:	0f 94 c0             	sete   %al
 3004095:	0f b6 c0             	movzbl %al,%eax
 3004098:	8b 4c 24 5c          	mov    0x5c(%esp),%ecx
 300409c:	89 01                	mov    %eax,(%ecx)
 300409e:	8b 44 24 58          	mov    0x58(%esp),%eax
 30040a2:	c7 00 00 04 00 00    	movl   $0x400,(%eax)
 30040a8:	31 c0                	xor    %eax,%eax
 30040aa:	83 c4 48             	add    $0x48,%esp
 30040ad:	5b                   	pop    %ebx
 30040ae:	c3                   	ret    
 30040af:	90                   	nop
 30040b0:	8b 44 24 5c          	mov    0x5c(%esp),%eax
 30040b4:	c7 00 00 00 00 00    	movl   $0x0,(%eax)
 30040ba:	f6 43 0c 80          	testb  $0x80,0xc(%ebx)
 30040be:	74 de                	je     300409e <__swhatbuf_r+0x42>
 30040c0:	8b 44 24 58          	mov    0x58(%esp),%eax
 30040c4:	c7 00 40 00 00 00    	movl   $0x40,(%eax)
 30040ca:	31 c0                	xor    %eax,%eax
 30040cc:	83 c4 48             	add    $0x48,%esp
 30040cf:	5b                   	pop    %ebx
 30040d0:	c3                   	ret    
 30040d1:	8d 76 00             	lea    0x0(%esi),%esi

030040d4 <__smakebuf_r>:
 30040d4:	57                   	push   %edi
 30040d5:	56                   	push   %esi
 30040d6:	53                   	push   %ebx
 30040d7:	83 ec 10             	sub    $0x10,%esp
 30040da:	8b 7c 24 20          	mov    0x20(%esp),%edi
 30040de:	8b 5c 24 24          	mov    0x24(%esp),%ebx
 30040e2:	f6 43 0c 02          	testb  $0x2,0xc(%ebx)
 30040e6:	74 18                	je     3004100 <__smakebuf_r+0x2c>
 30040e8:	8d 43 43             	lea    0x43(%ebx),%eax
 30040eb:	89 03                	mov    %eax,(%ebx)
 30040ed:	89 43 10             	mov    %eax,0x10(%ebx)
 30040f0:	c7 43 14 01 00 00 00 	movl   $0x1,0x14(%ebx)
 30040f7:	83 c4 10             	add    $0x10,%esp
 30040fa:	5b                   	pop    %ebx
 30040fb:	5e                   	pop    %esi
 30040fc:	5f                   	pop    %edi
 30040fd:	c3                   	ret    
 30040fe:	66 90                	xchg   %ax,%ax
 3004100:	8d 44 24 0c          	lea    0xc(%esp),%eax
 3004104:	50                   	push   %eax
 3004105:	8d 44 24 0c          	lea    0xc(%esp),%eax
 3004109:	50                   	push   %eax
 300410a:	53                   	push   %ebx
 300410b:	57                   	push   %edi
 300410c:	e8 4b ff ff ff       	call   300405c <__swhatbuf_r>
 3004111:	89 c6                	mov    %eax,%esi
 3004113:	5a                   	pop    %edx
 3004114:	59                   	pop    %ecx
 3004115:	ff 74 24 10          	pushl  0x10(%esp)
 3004119:	57                   	push   %edi
 300411a:	e8 35 f3 ff ff       	call   3003454 <_malloc_r>
 300411f:	83 c4 10             	add    $0x10,%esp
 3004122:	85 c0                	test   %eax,%eax
 3004124:	74 32                	je     3004158 <__smakebuf_r+0x84>
 3004126:	c7 47 3c c8 1d 00 03 	movl   $0x3001dc8,0x3c(%edi)
 300412d:	8b 53 0c             	mov    0xc(%ebx),%edx
 3004130:	80 ca 80             	or     $0x80,%dl
 3004133:	66 89 53 0c          	mov    %dx,0xc(%ebx)
 3004137:	89 03                	mov    %eax,(%ebx)
 3004139:	89 43 10             	mov    %eax,0x10(%ebx)
 300413c:	8b 44 24 08          	mov    0x8(%esp),%eax
 3004140:	89 43 14             	mov    %eax,0x14(%ebx)
 3004143:	8b 44 24 0c          	mov    0xc(%esp),%eax
 3004147:	85 c0                	test   %eax,%eax
 3004149:	75 25                	jne    3004170 <__smakebuf_r+0x9c>
 300414b:	09 f2                	or     %esi,%edx
 300414d:	66 89 53 0c          	mov    %dx,0xc(%ebx)
 3004151:	83 c4 10             	add    $0x10,%esp
 3004154:	5b                   	pop    %ebx
 3004155:	5e                   	pop    %esi
 3004156:	5f                   	pop    %edi
 3004157:	c3                   	ret    
 3004158:	8b 43 0c             	mov    0xc(%ebx),%eax
 300415b:	f6 c4 02             	test   $0x2,%ah
 300415e:	75 97                	jne    30040f7 <__smakebuf_r+0x23>
 3004160:	83 e0 fc             	and    $0xfffffffc,%eax
 3004163:	83 c8 02             	or     $0x2,%eax
 3004166:	66 89 43 0c          	mov    %ax,0xc(%ebx)
 300416a:	e9 79 ff ff ff       	jmp    30040e8 <__smakebuf_r+0x14>
 300416f:	90                   	nop
 3004170:	83 ec 08             	sub    $0x8,%esp
 3004173:	0f bf 43 0e          	movswl 0xe(%ebx),%eax
 3004177:	50                   	push   %eax
 3004178:	57                   	push   %edi
 3004179:	e8 16 12 00 00       	call   3005394 <_isatty_r>
 300417e:	83 c4 10             	add    $0x10,%esp
 3004181:	8b 53 0c             	mov    0xc(%ebx),%edx
 3004184:	85 c0                	test   %eax,%eax
 3004186:	74 c3                	je     300414b <__smakebuf_r+0x77>
 3004188:	83 e2 fc             	and    $0xfffffffc,%edx
 300418b:	83 ca 01             	or     $0x1,%edx
 300418e:	eb bb                	jmp    300414b <__smakebuf_r+0x77>

03004190 <__sflush_r>:
 3004190:	55                   	push   %ebp
 3004191:	57                   	push   %edi
 3004192:	56                   	push   %esi
 3004193:	53                   	push   %ebx
 3004194:	83 ec 0c             	sub    $0xc,%esp
 3004197:	8b 74 24 20          	mov    0x20(%esp),%esi
 300419b:	8b 5c 24 24          	mov    0x24(%esp),%ebx
 300419f:	8b 53 0c             	mov    0xc(%ebx),%edx
 30041a2:	f6 c2 08             	test   $0x8,%dl
 30041a5:	0f 85 c1 00 00 00    	jne    300426c <__sflush_r+0xdc>
 30041ab:	8b 7b 04             	mov    0x4(%ebx),%edi
 30041ae:	85 ff                	test   %edi,%edi
 30041b0:	0f 8e 02 01 00 00    	jle    30042b8 <__sflush_r+0x128>
 30041b6:	8b 4b 28             	mov    0x28(%ebx),%ecx
 30041b9:	85 c9                	test   %ecx,%ecx
 30041bb:	0f 84 a1 00 00 00    	je     3004262 <__sflush_r+0xd2>
 30041c1:	8b 3e                	mov    (%esi),%edi
 30041c3:	c7 06 00 00 00 00    	movl   $0x0,(%esi)
 30041c9:	8b 6b 1c             	mov    0x1c(%ebx),%ebp
 30041cc:	f6 c6 10             	test   $0x10,%dh
 30041cf:	0f 85 f7 00 00 00    	jne    30042cc <__sflush_r+0x13c>
 30041d5:	6a 01                	push   $0x1
 30041d7:	6a 00                	push   $0x0
 30041d9:	55                   	push   %ebp
 30041da:	56                   	push   %esi
 30041db:	ff d1                	call   *%ecx
 30041dd:	83 c4 10             	add    $0x10,%esp
 30041e0:	83 f8 ff             	cmp    $0xffffffff,%eax
 30041e3:	0f 84 0b 01 00 00    	je     30042f4 <__sflush_r+0x164>
 30041e9:	8b 53 0c             	mov    0xc(%ebx),%edx
 30041ec:	8b 4b 28             	mov    0x28(%ebx),%ecx
 30041ef:	8b 6b 1c             	mov    0x1c(%ebx),%ebp
 30041f2:	83 e2 04             	and    $0x4,%edx
 30041f5:	74 0d                	je     3004204 <__sflush_r+0x74>
 30041f7:	2b 43 04             	sub    0x4(%ebx),%eax
 30041fa:	8b 53 30             	mov    0x30(%ebx),%edx
 30041fd:	85 d2                	test   %edx,%edx
 30041ff:	74 03                	je     3004204 <__sflush_r+0x74>
 3004201:	2b 43 3c             	sub    0x3c(%ebx),%eax
 3004204:	6a 00                	push   $0x0
 3004206:	50                   	push   %eax
 3004207:	55                   	push   %ebp
 3004208:	56                   	push   %esi
 3004209:	ff d1                	call   *%ecx
 300420b:	83 c4 10             	add    $0x10,%esp
 300420e:	83 f8 ff             	cmp    $0xffffffff,%eax
 3004211:	0f 85 bd 00 00 00    	jne    30042d4 <__sflush_r+0x144>
 3004217:	8b 16                	mov    (%esi),%edx
 3004219:	8b 4b 0c             	mov    0xc(%ebx),%ecx
 300421c:	85 d2                	test   %edx,%edx
 300421e:	0f 84 f0 00 00 00    	je     3004314 <__sflush_r+0x184>
 3004224:	83 fa 1d             	cmp    $0x1d,%edx
 3004227:	74 09                	je     3004232 <__sflush_r+0xa2>
 3004229:	83 fa 16             	cmp    $0x16,%edx
 300422c:	0f 85 02 01 00 00    	jne    3004334 <__sflush_r+0x1a4>
 3004232:	c7 43 04 00 00 00 00 	movl   $0x0,0x4(%ebx)
 3004239:	8b 43 10             	mov    0x10(%ebx),%eax
 300423c:	89 03                	mov    %eax,(%ebx)
 300423e:	89 3e                	mov    %edi,(%esi)
 3004240:	8b 43 30             	mov    0x30(%ebx),%eax
 3004243:	85 c0                	test   %eax,%eax
 3004245:	74 1b                	je     3004262 <__sflush_r+0xd2>
 3004247:	8d 53 40             	lea    0x40(%ebx),%edx
 300424a:	39 d0                	cmp    %edx,%eax
 300424c:	74 0d                	je     300425b <__sflush_r+0xcb>
 300424e:	83 ec 08             	sub    $0x8,%esp
 3004251:	50                   	push   %eax
 3004252:	56                   	push   %esi
 3004253:	e8 00 ef ff ff       	call   3003158 <_free_r>
 3004258:	83 c4 10             	add    $0x10,%esp
 300425b:	c7 43 30 00 00 00 00 	movl   $0x0,0x30(%ebx)
 3004262:	31 c0                	xor    %eax,%eax
 3004264:	83 c4 0c             	add    $0xc,%esp
 3004267:	5b                   	pop    %ebx
 3004268:	5e                   	pop    %esi
 3004269:	5f                   	pop    %edi
 300426a:	5d                   	pop    %ebp
 300426b:	c3                   	ret    
 300426c:	8b 6b 10             	mov    0x10(%ebx),%ebp
 300426f:	85 ed                	test   %ebp,%ebp
 3004271:	74 ef                	je     3004262 <__sflush_r+0xd2>
 3004273:	8b 3b                	mov    (%ebx),%edi
 3004275:	29 ef                	sub    %ebp,%edi
 3004277:	89 2b                	mov    %ebp,(%ebx)
 3004279:	83 e2 03             	and    $0x3,%edx
 300427c:	75 4a                	jne    30042c8 <__sflush_r+0x138>
 300427e:	8b 43 14             	mov    0x14(%ebx),%eax
 3004281:	89 43 08             	mov    %eax,0x8(%ebx)
 3004284:	85 ff                	test   %edi,%edi
 3004286:	7f 0c                	jg     3004294 <__sflush_r+0x104>
 3004288:	eb d8                	jmp    3004262 <__sflush_r+0xd2>
 300428a:	66 90                	xchg   %ax,%ax
 300428c:	01 c5                	add    %eax,%ebp
 300428e:	29 c7                	sub    %eax,%edi
 3004290:	85 ff                	test   %edi,%edi
 3004292:	7e ce                	jle    3004262 <__sflush_r+0xd2>
 3004294:	57                   	push   %edi
 3004295:	55                   	push   %ebp
 3004296:	ff 73 1c             	pushl  0x1c(%ebx)
 3004299:	56                   	push   %esi
 300429a:	ff 53 24             	call   *0x24(%ebx)
 300429d:	83 c4 10             	add    $0x10,%esp
 30042a0:	85 c0                	test   %eax,%eax
 30042a2:	7f e8                	jg     300428c <__sflush_r+0xfc>
 30042a4:	66 83 4b 0c 40       	orw    $0x40,0xc(%ebx)
 30042a9:	b8 ff ff ff ff       	mov    $0xffffffff,%eax
 30042ae:	83 c4 0c             	add    $0xc,%esp
 30042b1:	5b                   	pop    %ebx
 30042b2:	5e                   	pop    %esi
 30042b3:	5f                   	pop    %edi
 30042b4:	5d                   	pop    %ebp
 30042b5:	c3                   	ret    
 30042b6:	66 90                	xchg   %ax,%ax
 30042b8:	8b 4b 3c             	mov    0x3c(%ebx),%ecx
 30042bb:	85 c9                	test   %ecx,%ecx
 30042bd:	0f 8f f3 fe ff ff    	jg     30041b6 <__sflush_r+0x26>
 30042c3:	eb 9d                	jmp    3004262 <__sflush_r+0xd2>
 30042c5:	8d 76 00             	lea    0x0(%esi),%esi
 30042c8:	31 c0                	xor    %eax,%eax
 30042ca:	eb b5                	jmp    3004281 <__sflush_r+0xf1>
 30042cc:	8b 43 50             	mov    0x50(%ebx),%eax
 30042cf:	e9 1e ff ff ff       	jmp    30041f2 <__sflush_r+0x62>
 30042d4:	c7 43 04 00 00 00 00 	movl   $0x0,0x4(%ebx)
 30042db:	8b 53 10             	mov    0x10(%ebx),%edx
 30042de:	89 13                	mov    %edx,(%ebx)
 30042e0:	f6 43 0d 10          	testb  $0x10,0xd(%ebx)
 30042e4:	0f 84 54 ff ff ff    	je     300423e <__sflush_r+0xae>
 30042ea:	89 43 50             	mov    %eax,0x50(%ebx)
 30042ed:	e9 4c ff ff ff       	jmp    300423e <__sflush_r+0xae>
 30042f2:	66 90                	xchg   %ax,%ax
 30042f4:	8b 16                	mov    (%esi),%edx
 30042f6:	85 d2                	test   %edx,%edx
 30042f8:	0f 84 eb fe ff ff    	je     30041e9 <__sflush_r+0x59>
 30042fe:	83 fa 1d             	cmp    $0x1d,%edx
 3004301:	74 28                	je     300432b <__sflush_r+0x19b>
 3004303:	83 fa 16             	cmp    $0x16,%edx
 3004306:	74 23                	je     300432b <__sflush_r+0x19b>
 3004308:	66 83 4b 0c 40       	orw    $0x40,0xc(%ebx)
 300430d:	e9 52 ff ff ff       	jmp    3004264 <__sflush_r+0xd4>
 3004312:	66 90                	xchg   %ax,%ax
 3004314:	c7 43 04 00 00 00 00 	movl   $0x0,0x4(%ebx)
 300431b:	8b 53 10             	mov    0x10(%ebx),%edx
 300431e:	89 13                	mov    %edx,(%ebx)
 3004320:	80 e5 10             	and    $0x10,%ch
 3004323:	0f 84 15 ff ff ff    	je     300423e <__sflush_r+0xae>
 3004329:	eb bf                	jmp    30042ea <__sflush_r+0x15a>
 300432b:	89 3e                	mov    %edi,(%esi)
 300432d:	31 c0                	xor    %eax,%eax
 300432f:	e9 30 ff ff ff       	jmp    3004264 <__sflush_r+0xd4>
 3004334:	83 c9 40             	or     $0x40,%ecx
 3004337:	66 89 4b 0c          	mov    %cx,0xc(%ebx)
 300433b:	e9 24 ff ff ff       	jmp    3004264 <__sflush_r+0xd4>

03004340 <_fflush_r>:
 3004340:	56                   	push   %esi
 3004341:	53                   	push   %ebx
 3004342:	50                   	push   %eax
 3004343:	8b 5c 24 10          	mov    0x10(%esp),%ebx
 3004347:	8b 74 24 14          	mov    0x14(%esp),%esi
 300434b:	85 db                	test   %ebx,%ebx
 300434d:	74 07                	je     3004356 <_fflush_r+0x16>
 300434f:	8b 43 38             	mov    0x38(%ebx),%eax
 3004352:	85 c0                	test   %eax,%eax
 3004354:	74 0e                	je     3004364 <_fflush_r+0x24>
 3004356:	66 83 7e 0c 00       	cmpw   $0x0,0xc(%esi)
 300435b:	75 1a                	jne    3004377 <_fflush_r+0x37>
 300435d:	31 c0                	xor    %eax,%eax
 300435f:	5a                   	pop    %edx
 3004360:	5b                   	pop    %ebx
 3004361:	5e                   	pop    %esi
 3004362:	c3                   	ret    
 3004363:	90                   	nop
 3004364:	83 ec 0c             	sub    $0xc,%esp
 3004367:	53                   	push   %ebx
 3004368:	e8 3f dd ff ff       	call   30020ac <__sinit>
 300436d:	83 c4 10             	add    $0x10,%esp
 3004370:	66 83 7e 0c 00       	cmpw   $0x0,0xc(%esi)
 3004375:	74 e6                	je     300435d <_fflush_r+0x1d>
 3004377:	89 74 24 14          	mov    %esi,0x14(%esp)
 300437b:	89 5c 24 10          	mov    %ebx,0x10(%esp)
 300437f:	59                   	pop    %ecx
 3004380:	5b                   	pop    %ebx
 3004381:	5e                   	pop    %esi
 3004382:	e9 09 fe ff ff       	jmp    3004190 <__sflush_r>
 3004387:	90                   	nop

03004388 <fflush>:
 3004388:	53                   	push   %ebx
 3004389:	83 ec 08             	sub    $0x8,%esp
 300438c:	8b 5c 24 10          	mov    0x10(%esp),%ebx
 3004390:	85 db                	test   %ebx,%ebx
 3004392:	74 18                	je     30043ac <fflush+0x24>
 3004394:	e8 d3 cd ff ff       	call   300116c <__getreent>
 3004399:	83 ec 08             	sub    $0x8,%esp
 300439c:	53                   	push   %ebx
 300439d:	50                   	push   %eax
 300439e:	e8 9d ff ff ff       	call   3004340 <_fflush_r>
 30043a3:	83 c4 10             	add    $0x10,%esp
 30043a6:	83 c4 08             	add    $0x8,%esp
 30043a9:	5b                   	pop    %ebx
 30043aa:	c3                   	ret    
 30043ab:	90                   	nop
 30043ac:	83 ec 08             	sub    $0x8,%esp
 30043af:	68 40 43 00 03       	push   $0x3004340
 30043b4:	ff 35 f0 63 00 03    	pushl  0x30063f0
 30043ba:	e8 5d 00 00 00       	call   300441c <_fwalk_reent>
 30043bf:	83 c4 10             	add    $0x10,%esp
 30043c2:	83 c4 08             	add    $0x8,%esp
 30043c5:	5b                   	pop    %ebx
 30043c6:	c3                   	ret    
 30043c7:	90                   	nop

030043c8 <_fwalk>:
 30043c8:	55                   	push   %ebp
 30043c9:	57                   	push   %edi
 30043ca:	56                   	push   %esi
 30043cb:	53                   	push   %ebx
 30043cc:	83 ec 0c             	sub    $0xc,%esp
 30043cf:	8b 44 24 20          	mov    0x20(%esp),%eax
 30043d3:	8d b8 e0 02 00 00    	lea    0x2e0(%eax),%edi
 30043d9:	31 f6                	xor    %esi,%esi
 30043db:	90                   	nop
 30043dc:	8b 5f 08             	mov    0x8(%edi),%ebx
 30043df:	8b 6f 04             	mov    0x4(%edi),%ebp
 30043e2:	4d                   	dec    %ebp
 30043e3:	78 27                	js     300440c <_fwalk+0x44>
 30043e5:	8d 76 00             	lea    0x0(%esi),%esi
 30043e8:	66 83 7b 0c 01       	cmpw   $0x1,0xc(%ebx)
 30043ed:	76 14                	jbe    3004403 <_fwalk+0x3b>
 30043ef:	66 83 7b 0e ff       	cmpw   $0xffff,0xe(%ebx)
 30043f4:	74 0d                	je     3004403 <_fwalk+0x3b>
 30043f6:	83 ec 0c             	sub    $0xc,%esp
 30043f9:	53                   	push   %ebx
 30043fa:	ff 54 24 34          	call   *0x34(%esp)
 30043fe:	09 c6                	or     %eax,%esi
 3004400:	83 c4 10             	add    $0x10,%esp
 3004403:	83 c3 68             	add    $0x68,%ebx
 3004406:	4d                   	dec    %ebp
 3004407:	83 fd ff             	cmp    $0xffffffff,%ebp
 300440a:	75 dc                	jne    30043e8 <_fwalk+0x20>
 300440c:	8b 3f                	mov    (%edi),%edi
 300440e:	85 ff                	test   %edi,%edi
 3004410:	75 ca                	jne    30043dc <_fwalk+0x14>
 3004412:	89 f0                	mov    %esi,%eax
 3004414:	83 c4 0c             	add    $0xc,%esp
 3004417:	5b                   	pop    %ebx
 3004418:	5e                   	pop    %esi
 3004419:	5f                   	pop    %edi
 300441a:	5d                   	pop    %ebp
 300441b:	c3                   	ret    

0300441c <_fwalk_reent>:
 300441c:	55                   	push   %ebp
 300441d:	57                   	push   %edi
 300441e:	56                   	push   %esi
 300441f:	53                   	push   %ebx
 3004420:	83 ec 0c             	sub    $0xc,%esp
 3004423:	8b 44 24 20          	mov    0x20(%esp),%eax
 3004427:	8d b0 e0 02 00 00    	lea    0x2e0(%eax),%esi
 300442d:	31 db                	xor    %ebx,%ebx
 300442f:	90                   	nop
 3004430:	8b 7e 08             	mov    0x8(%esi),%edi
 3004433:	8b 6e 04             	mov    0x4(%esi),%ebp
 3004436:	4d                   	dec    %ebp
 3004437:	78 2b                	js     3004464 <_fwalk_reent+0x48>
 3004439:	8d 76 00             	lea    0x0(%esi),%esi
 300443c:	66 83 7f 0c 01       	cmpw   $0x1,0xc(%edi)
 3004441:	76 18                	jbe    300445b <_fwalk_reent+0x3f>
 3004443:	66 83 7f 0e ff       	cmpw   $0xffff,0xe(%edi)
 3004448:	74 11                	je     300445b <_fwalk_reent+0x3f>
 300444a:	83 ec 08             	sub    $0x8,%esp
 300444d:	57                   	push   %edi
 300444e:	ff 74 24 2c          	pushl  0x2c(%esp)
 3004452:	ff 54 24 34          	call   *0x34(%esp)
 3004456:	09 c3                	or     %eax,%ebx
 3004458:	83 c4 10             	add    $0x10,%esp
 300445b:	83 c7 68             	add    $0x68,%edi
 300445e:	4d                   	dec    %ebp
 300445f:	83 fd ff             	cmp    $0xffffffff,%ebp
 3004462:	75 d8                	jne    300443c <_fwalk_reent+0x20>
 3004464:	8b 36                	mov    (%esi),%esi
 3004466:	85 f6                	test   %esi,%esi
 3004468:	75 c6                	jne    3004430 <_fwalk_reent+0x14>
 300446a:	89 d8                	mov    %ebx,%eax
 300446c:	83 c4 0c             	add    $0xc,%esp
 300446f:	5b                   	pop    %ebx
 3004470:	5e                   	pop    %esi
 3004471:	5f                   	pop    %edi
 3004472:	5d                   	pop    %ebp
 3004473:	c3                   	ret    

03004474 <_putc_r>:
 3004474:	56                   	push   %esi
 3004475:	53                   	push   %ebx
 3004476:	83 ec 14             	sub    $0x14,%esp
 3004479:	8b 74 24 20          	mov    0x20(%esp),%esi
 300447d:	8b 44 24 24          	mov    0x24(%esp),%eax
 3004481:	8b 5c 24 28          	mov    0x28(%esp),%ebx
 3004485:	85 f6                	test   %esi,%esi
 3004487:	74 07                	je     3004490 <_putc_r+0x1c>
 3004489:	8b 56 38             	mov    0x38(%esi),%edx
 300448c:	85 d2                	test   %edx,%edx
 300448e:	74 28                	je     30044b8 <_putc_r+0x44>
 3004490:	8b 4b 08             	mov    0x8(%ebx),%ecx
 3004493:	8d 51 ff             	lea    -0x1(%ecx),%edx
 3004496:	89 53 08             	mov    %edx,0x8(%ebx)
 3004499:	85 d2                	test   %edx,%edx
 300449b:	79 09                	jns    30044a6 <_putc_r+0x32>
 300449d:	3b 53 18             	cmp    0x18(%ebx),%edx
 30044a0:	7c 2e                	jl     30044d0 <_putc_r+0x5c>
 30044a2:	3c 0a                	cmp    $0xa,%al
 30044a4:	74 2a                	je     30044d0 <_putc_r+0x5c>
 30044a6:	8b 13                	mov    (%ebx),%edx
 30044a8:	8d 4a 01             	lea    0x1(%edx),%ecx
 30044ab:	89 0b                	mov    %ecx,(%ebx)
 30044ad:	88 02                	mov    %al,(%edx)
 30044af:	0f b6 c0             	movzbl %al,%eax
 30044b2:	83 c4 14             	add    $0x14,%esp
 30044b5:	5b                   	pop    %ebx
 30044b6:	5e                   	pop    %esi
 30044b7:	c3                   	ret    
 30044b8:	89 44 24 0c          	mov    %eax,0xc(%esp)
 30044bc:	83 ec 0c             	sub    $0xc,%esp
 30044bf:	56                   	push   %esi
 30044c0:	e8 e7 db ff ff       	call   30020ac <__sinit>
 30044c5:	83 c4 10             	add    $0x10,%esp
 30044c8:	8b 44 24 0c          	mov    0xc(%esp),%eax
 30044cc:	eb c2                	jmp    3004490 <_putc_r+0x1c>
 30044ce:	66 90                	xchg   %ax,%ax
 30044d0:	89 5c 24 28          	mov    %ebx,0x28(%esp)
 30044d4:	89 44 24 24          	mov    %eax,0x24(%esp)
 30044d8:	89 74 24 20          	mov    %esi,0x20(%esp)
 30044dc:	83 c4 14             	add    $0x14,%esp
 30044df:	5b                   	pop    %ebx
 30044e0:	5e                   	pop    %esi
 30044e1:	e9 aa 05 00 00       	jmp    3004a90 <__swbuf_r>
 30044e6:	66 90                	xchg   %ax,%ax

030044e8 <putc>:
 30044e8:	56                   	push   %esi
 30044e9:	53                   	push   %ebx
 30044ea:	83 ec 14             	sub    $0x14,%esp
 30044ed:	8b 5c 24 20          	mov    0x20(%esp),%ebx
 30044f1:	8b 74 24 24          	mov    0x24(%esp),%esi
 30044f5:	e8 72 cc ff ff       	call   300116c <__getreent>
 30044fa:	85 c0                	test   %eax,%eax
 30044fc:	74 07                	je     3004505 <putc+0x1d>
 30044fe:	8b 48 38             	mov    0x38(%eax),%ecx
 3004501:	85 c9                	test   %ecx,%ecx
 3004503:	74 2b                	je     3004530 <putc+0x48>
 3004505:	8b 4e 08             	mov    0x8(%esi),%ecx
 3004508:	8d 51 ff             	lea    -0x1(%ecx),%edx
 300450b:	89 56 08             	mov    %edx,0x8(%esi)
 300450e:	85 d2                	test   %edx,%edx
 3004510:	79 0a                	jns    300451c <putc+0x34>
 3004512:	3b 56 18             	cmp    0x18(%esi),%edx
 3004515:	7c 31                	jl     3004548 <putc+0x60>
 3004517:	80 fb 0a             	cmp    $0xa,%bl
 300451a:	74 2c                	je     3004548 <putc+0x60>
 300451c:	8b 06                	mov    (%esi),%eax
 300451e:	8d 50 01             	lea    0x1(%eax),%edx
 3004521:	89 16                	mov    %edx,(%esi)
 3004523:	88 18                	mov    %bl,(%eax)
 3004525:	0f b6 c3             	movzbl %bl,%eax
 3004528:	83 c4 14             	add    $0x14,%esp
 300452b:	5b                   	pop    %ebx
 300452c:	5e                   	pop    %esi
 300452d:	c3                   	ret    
 300452e:	66 90                	xchg   %ax,%ax
 3004530:	83 ec 0c             	sub    $0xc,%esp
 3004533:	50                   	push   %eax
 3004534:	89 44 24 1c          	mov    %eax,0x1c(%esp)
 3004538:	e8 6f db ff ff       	call   30020ac <__sinit>
 300453d:	83 c4 10             	add    $0x10,%esp
 3004540:	8b 44 24 0c          	mov    0xc(%esp),%eax
 3004544:	eb bf                	jmp    3004505 <putc+0x1d>
 3004546:	66 90                	xchg   %ax,%ax
 3004548:	52                   	push   %edx
 3004549:	56                   	push   %esi
 300454a:	53                   	push   %ebx
 300454b:	50                   	push   %eax
 300454c:	e8 3f 05 00 00       	call   3004a90 <__swbuf_r>
 3004551:	83 c4 10             	add    $0x10,%esp
 3004554:	83 c4 14             	add    $0x14,%esp
 3004557:	5b                   	pop    %ebx
 3004558:	5e                   	pop    %esi
 3004559:	c3                   	ret    
 300455a:	66 90                	xchg   %ax,%ax

0300455c <__sfvwrite_r>:
 300455c:	55                   	push   %ebp
 300455d:	57                   	push   %edi
 300455e:	56                   	push   %esi
 300455f:	53                   	push   %ebx
 3004560:	83 ec 1c             	sub    $0x1c,%esp
 3004563:	8b 5c 24 34          	mov    0x34(%esp),%ebx
 3004567:	8b 44 24 38          	mov    0x38(%esp),%eax
 300456b:	8b 70 08             	mov    0x8(%eax),%esi
 300456e:	85 f6                	test   %esi,%esi
 3004570:	0f 84 8a 00 00 00    	je     3004600 <__sfvwrite_r+0xa4>
 3004576:	8b 43 0c             	mov    0xc(%ebx),%eax
 3004579:	a8 08                	test   $0x8,%al
 300457b:	0f 84 8b 00 00 00    	je     300460c <__sfvwrite_r+0xb0>
 3004581:	8b 4b 10             	mov    0x10(%ebx),%ecx
 3004584:	85 c9                	test   %ecx,%ecx
 3004586:	0f 84 80 00 00 00    	je     300460c <__sfvwrite_r+0xb0>
 300458c:	8b 7c 24 38          	mov    0x38(%esp),%edi
 3004590:	8b 2f                	mov    (%edi),%ebp
 3004592:	a8 02                	test   $0x2,%al
 3004594:	0f 84 9b 00 00 00    	je     3004635 <__sfvwrite_r+0xd9>
 300459a:	8b 4b 24             	mov    0x24(%ebx),%ecx
 300459d:	8b 53 1c             	mov    0x1c(%ebx),%edx
 30045a0:	31 ff                	xor    %edi,%edi
 30045a2:	31 f6                	xor    %esi,%esi
 30045a4:	85 f6                	test   %esi,%esi
 30045a6:	74 4b                	je     30045f3 <__sfvwrite_r+0x97>
 30045a8:	89 f0                	mov    %esi,%eax
 30045aa:	81 fe 00 fc ff 7f    	cmp    $0x7ffffc00,%esi
 30045b0:	76 05                	jbe    30045b7 <__sfvwrite_r+0x5b>
 30045b2:	b8 00 fc ff 7f       	mov    $0x7ffffc00,%eax
 30045b7:	50                   	push   %eax
 30045b8:	57                   	push   %edi
 30045b9:	52                   	push   %edx
 30045ba:	ff 74 24 3c          	pushl  0x3c(%esp)
 30045be:	ff d1                	call   *%ecx
 30045c0:	83 c4 10             	add    $0x10,%esp
 30045c3:	85 c0                	test   %eax,%eax
 30045c5:	0f 8e b5 01 00 00    	jle    3004780 <__sfvwrite_r+0x224>
 30045cb:	01 c7                	add    %eax,%edi
 30045cd:	29 c6                	sub    %eax,%esi
 30045cf:	8b 4c 24 38          	mov    0x38(%esp),%ecx
 30045d3:	8b 49 08             	mov    0x8(%ecx),%ecx
 30045d6:	89 4c 24 04          	mov    %ecx,0x4(%esp)
 30045da:	89 ca                	mov    %ecx,%edx
 30045dc:	29 c2                	sub    %eax,%edx
 30045de:	89 d0                	mov    %edx,%eax
 30045e0:	8b 54 24 38          	mov    0x38(%esp),%edx
 30045e4:	89 42 08             	mov    %eax,0x8(%edx)
 30045e7:	74 17                	je     3004600 <__sfvwrite_r+0xa4>
 30045e9:	8b 4b 24             	mov    0x24(%ebx),%ecx
 30045ec:	8b 53 1c             	mov    0x1c(%ebx),%edx
 30045ef:	85 f6                	test   %esi,%esi
 30045f1:	75 b5                	jne    30045a8 <__sfvwrite_r+0x4c>
 30045f3:	8b 7d 00             	mov    0x0(%ebp),%edi
 30045f6:	8b 75 04             	mov    0x4(%ebp),%esi
 30045f9:	83 c5 08             	add    $0x8,%ebp
 30045fc:	eb a6                	jmp    30045a4 <__sfvwrite_r+0x48>
 30045fe:	66 90                	xchg   %ax,%ax
 3004600:	31 c0                	xor    %eax,%eax
 3004602:	83 c4 1c             	add    $0x1c,%esp
 3004605:	5b                   	pop    %ebx
 3004606:	5e                   	pop    %esi
 3004607:	5f                   	pop    %edi
 3004608:	5d                   	pop    %ebp
 3004609:	c3                   	ret    
 300460a:	66 90                	xchg   %ax,%ax
 300460c:	83 ec 08             	sub    $0x8,%esp
 300460f:	53                   	push   %ebx
 3004610:	ff 74 24 3c          	pushl  0x3c(%esp)
 3004614:	e8 3b e8 ff ff       	call   3002e54 <__swsetup_r>
 3004619:	83 c4 10             	add    $0x10,%esp
 300461c:	85 c0                	test   %eax,%eax
 300461e:	0f 85 6e 03 00 00    	jne    3004992 <__sfvwrite_r+0x436>
 3004624:	8b 43 0c             	mov    0xc(%ebx),%eax
 3004627:	8b 7c 24 38          	mov    0x38(%esp),%edi
 300462b:	8b 2f                	mov    (%edi),%ebp
 300462d:	a8 02                	test   $0x2,%al
 300462f:	0f 85 65 ff ff ff    	jne    300459a <__sfvwrite_r+0x3e>
 3004635:	a8 01                	test   $0x1,%al
 3004637:	0f 85 5b 01 00 00    	jne    3004798 <__sfvwrite_r+0x23c>
 300463d:	8b 73 08             	mov    0x8(%ebx),%esi
 3004640:	8b 13                	mov    (%ebx),%edx
 3004642:	c7 44 24 04 00 00 00 	movl   $0x0,0x4(%esp)
 3004649:	00 
 300464a:	31 ff                	xor    %edi,%edi
 300464c:	85 ff                	test   %edi,%edi
 300464e:	0f 84 fa 00 00 00    	je     300474e <__sfvwrite_r+0x1f2>
 3004654:	f6 c4 02             	test   $0x2,%ah
 3004657:	0f 84 f7 01 00 00    	je     3004854 <__sfvwrite_r+0x2f8>
 300465d:	89 f1                	mov    %esi,%ecx
 300465f:	39 fe                	cmp    %edi,%esi
 3004661:	0f 87 79 02 00 00    	ja     30048e0 <__sfvwrite_r+0x384>
 3004667:	a9 80 04 00 00       	test   $0x480,%eax
 300466c:	0f 84 8e 00 00 00    	je     3004700 <__sfvwrite_r+0x1a4>
 3004672:	8b 4b 10             	mov    0x10(%ebx),%ecx
 3004675:	29 ca                	sub    %ecx,%edx
 3004677:	89 54 24 0c          	mov    %edx,0xc(%esp)
 300467b:	8b 53 14             	mov    0x14(%ebx),%edx
 300467e:	8d 34 12             	lea    (%edx,%edx,1),%esi
 3004681:	01 f2                	add    %esi,%edx
 3004683:	89 d6                	mov    %edx,%esi
 3004685:	c1 ee 1f             	shr    $0x1f,%esi
 3004688:	01 f2                	add    %esi,%edx
 300468a:	d1 fa                	sar    %edx
 300468c:	8b 74 24 0c          	mov    0xc(%esp),%esi
 3004690:	8d 74 37 01          	lea    0x1(%edi,%esi,1),%esi
 3004694:	89 54 24 08          	mov    %edx,0x8(%esp)
 3004698:	39 d6                	cmp    %edx,%esi
 300469a:	76 06                	jbe    30046a2 <__sfvwrite_r+0x146>
 300469c:	89 f2                	mov    %esi,%edx
 300469e:	89 74 24 08          	mov    %esi,0x8(%esp)
 30046a2:	f6 c4 04             	test   $0x4,%ah
 30046a5:	0f 84 89 02 00 00    	je     3004934 <__sfvwrite_r+0x3d8>
 30046ab:	83 ec 08             	sub    $0x8,%esp
 30046ae:	52                   	push   %edx
 30046af:	ff 74 24 3c          	pushl  0x3c(%esp)
 30046b3:	e8 9c ed ff ff       	call   3003454 <_malloc_r>
 30046b8:	89 c6                	mov    %eax,%esi
 30046ba:	83 c4 10             	add    $0x10,%esp
 30046bd:	85 c0                	test   %eax,%eax
 30046bf:	0f 84 bb 02 00 00    	je     3004980 <__sfvwrite_r+0x424>
 30046c5:	52                   	push   %edx
 30046c6:	ff 74 24 10          	pushl  0x10(%esp)
 30046ca:	ff 73 10             	pushl  0x10(%ebx)
 30046cd:	50                   	push   %eax
 30046ce:	e8 c9 0a 00 00       	call   300519c <memcpy>
 30046d3:	8b 43 0c             	mov    0xc(%ebx),%eax
 30046d6:	25 7f fb ff ff       	and    $0xfffffb7f,%eax
 30046db:	0c 80                	or     $0x80,%al
 30046dd:	66 89 43 0c          	mov    %ax,0xc(%ebx)
 30046e1:	83 c4 10             	add    $0x10,%esp
 30046e4:	89 73 10             	mov    %esi,0x10(%ebx)
 30046e7:	8b 4c 24 0c          	mov    0xc(%esp),%ecx
 30046eb:	8d 14 0e             	lea    (%esi,%ecx,1),%edx
 30046ee:	89 13                	mov    %edx,(%ebx)
 30046f0:	8b 44 24 08          	mov    0x8(%esp),%eax
 30046f4:	89 43 14             	mov    %eax,0x14(%ebx)
 30046f7:	89 fe                	mov    %edi,%esi
 30046f9:	29 c8                	sub    %ecx,%eax
 30046fb:	89 43 08             	mov    %eax,0x8(%ebx)
 30046fe:	89 f9                	mov    %edi,%ecx
 3004700:	50                   	push   %eax
 3004701:	51                   	push   %ecx
 3004702:	89 4c 24 10          	mov    %ecx,0x10(%esp)
 3004706:	ff 74 24 0c          	pushl  0xc(%esp)
 300470a:	52                   	push   %edx
 300470b:	e8 a8 09 00 00       	call   30050b8 <memmove>
 3004710:	29 73 08             	sub    %esi,0x8(%ebx)
 3004713:	8b 4c 24 18          	mov    0x18(%esp),%ecx
 3004717:	01 0b                	add    %ecx,(%ebx)
 3004719:	83 c4 10             	add    $0x10,%esp
 300471c:	89 fe                	mov    %edi,%esi
 300471e:	31 ff                	xor    %edi,%edi
 3004720:	01 74 24 04          	add    %esi,0x4(%esp)
 3004724:	8b 44 24 38          	mov    0x38(%esp),%eax
 3004728:	8b 40 08             	mov    0x8(%eax),%eax
 300472b:	89 44 24 08          	mov    %eax,0x8(%esp)
 300472f:	29 f0                	sub    %esi,%eax
 3004731:	8b 4c 24 38          	mov    0x38(%esp),%ecx
 3004735:	89 41 08             	mov    %eax,0x8(%ecx)
 3004738:	0f 84 c2 fe ff ff    	je     3004600 <__sfvwrite_r+0xa4>
 300473e:	8b 43 0c             	mov    0xc(%ebx),%eax
 3004741:	8b 73 08             	mov    0x8(%ebx),%esi
 3004744:	8b 13                	mov    (%ebx),%edx
 3004746:	85 ff                	test   %edi,%edi
 3004748:	0f 85 06 ff ff ff    	jne    3004654 <__sfvwrite_r+0xf8>
 300474e:	8b 4d 00             	mov    0x0(%ebp),%ecx
 3004751:	89 4c 24 04          	mov    %ecx,0x4(%esp)
 3004755:	8b 7d 04             	mov    0x4(%ebp),%edi
 3004758:	83 c5 08             	add    $0x8,%ebp
 300475b:	e9 ec fe ff ff       	jmp    300464c <__sfvwrite_r+0xf0>
 3004760:	52                   	push   %edx
 3004761:	56                   	push   %esi
 3004762:	55                   	push   %ebp
 3004763:	51                   	push   %ecx
 3004764:	e8 4f 09 00 00       	call   30050b8 <memmove>
 3004769:	01 33                	add    %esi,(%ebx)
 300476b:	59                   	pop    %ecx
 300476c:	58                   	pop    %eax
 300476d:	53                   	push   %ebx
 300476e:	ff 74 24 3c          	pushl  0x3c(%esp)
 3004772:	e8 c9 fb ff ff       	call   3004340 <_fflush_r>
 3004777:	83 c4 10             	add    $0x10,%esp
 300477a:	85 c0                	test   %eax,%eax
 300477c:	74 72                	je     30047f0 <__sfvwrite_r+0x294>
 300477e:	66 90                	xchg   %ax,%ax
 3004780:	8b 43 0c             	mov    0xc(%ebx),%eax
 3004783:	83 c8 40             	or     $0x40,%eax
 3004786:	66 89 43 0c          	mov    %ax,0xc(%ebx)
 300478a:	b8 ff ff ff ff       	mov    $0xffffffff,%eax
 300478f:	83 c4 1c             	add    $0x1c,%esp
 3004792:	5b                   	pop    %ebx
 3004793:	5e                   	pop    %esi
 3004794:	5f                   	pop    %edi
 3004795:	5d                   	pop    %ebp
 3004796:	c3                   	ret    
 3004797:	90                   	nop
 3004798:	c7 44 24 08 00 00 00 	movl   $0x0,0x8(%esp)
 300479f:	00 
 30047a0:	31 c0                	xor    %eax,%eax
 30047a2:	31 c9                	xor    %ecx,%ecx
 30047a4:	31 ff                	xor    %edi,%edi
 30047a6:	89 6c 24 0c          	mov    %ebp,0xc(%esp)
 30047aa:	89 cd                	mov    %ecx,%ebp
 30047ac:	eb 6b                	jmp    3004819 <__sfvwrite_r+0x2bd>
 30047ae:	66 90                	xchg   %ax,%ax
 30047b0:	85 c0                	test   %eax,%eax
 30047b2:	74 7d                	je     3004831 <__sfvwrite_r+0x2d5>
 30047b4:	8b 44 24 08          	mov    0x8(%esp),%eax
 30047b8:	89 fa                	mov    %edi,%edx
 30047ba:	39 c7                	cmp    %eax,%edi
 30047bc:	76 02                	jbe    30047c0 <__sfvwrite_r+0x264>
 30047be:	89 c2                	mov    %eax,%edx
 30047c0:	8b 43 14             	mov    0x14(%ebx),%eax
 30047c3:	8b 0b                	mov    (%ebx),%ecx
 30047c5:	3b 4b 10             	cmp    0x10(%ebx),%ecx
 30047c8:	76 09                	jbe    30047d3 <__sfvwrite_r+0x277>
 30047ca:	8b 73 08             	mov    0x8(%ebx),%esi
 30047cd:	01 c6                	add    %eax,%esi
 30047cf:	39 f2                	cmp    %esi,%edx
 30047d1:	7f 8d                	jg     3004760 <__sfvwrite_r+0x204>
 30047d3:	39 d0                	cmp    %edx,%eax
 30047d5:	0f 8f 31 01 00 00    	jg     300490c <__sfvwrite_r+0x3b0>
 30047db:	50                   	push   %eax
 30047dc:	55                   	push   %ebp
 30047dd:	ff 73 1c             	pushl  0x1c(%ebx)
 30047e0:	ff 74 24 3c          	pushl  0x3c(%esp)
 30047e4:	ff 53 24             	call   *0x24(%ebx)
 30047e7:	89 c6                	mov    %eax,%esi
 30047e9:	83 c4 10             	add    $0x10,%esp
 30047ec:	85 c0                	test   %eax,%eax
 30047ee:	7e 90                	jle    3004780 <__sfvwrite_r+0x224>
 30047f0:	29 74 24 08          	sub    %esi,0x8(%esp)
 30047f4:	0f 84 f2 00 00 00    	je     30048ec <__sfvwrite_r+0x390>
 30047fa:	b8 01 00 00 00       	mov    $0x1,%eax
 30047ff:	01 f5                	add    %esi,%ebp
 3004801:	29 f7                	sub    %esi,%edi
 3004803:	8b 4c 24 38          	mov    0x38(%esp),%ecx
 3004807:	8b 51 08             	mov    0x8(%ecx),%edx
 300480a:	89 54 24 04          	mov    %edx,0x4(%esp)
 300480e:	29 f2                	sub    %esi,%edx
 3004810:	89 51 08             	mov    %edx,0x8(%ecx)
 3004813:	0f 84 e7 fd ff ff    	je     3004600 <__sfvwrite_r+0xa4>
 3004819:	85 ff                	test   %edi,%edi
 300481b:	75 93                	jne    30047b0 <__sfvwrite_r+0x254>
 300481d:	8b 44 24 0c          	mov    0xc(%esp),%eax
 3004821:	8b 28                	mov    (%eax),%ebp
 3004823:	8b 78 04             	mov    0x4(%eax),%edi
 3004826:	83 c0 08             	add    $0x8,%eax
 3004829:	85 ff                	test   %edi,%edi
 300482b:	74 f4                	je     3004821 <__sfvwrite_r+0x2c5>
 300482d:	89 44 24 0c          	mov    %eax,0xc(%esp)
 3004831:	50                   	push   %eax
 3004832:	57                   	push   %edi
 3004833:	6a 0a                	push   $0xa
 3004835:	55                   	push   %ebp
 3004836:	e8 e5 f4 ff ff       	call   3003d20 <memchr>
 300483b:	83 c4 10             	add    $0x10,%esp
 300483e:	85 c0                	test   %eax,%eax
 3004840:	0f 84 2e 01 00 00    	je     3004974 <__sfvwrite_r+0x418>
 3004846:	40                   	inc    %eax
 3004847:	29 e8                	sub    %ebp,%eax
 3004849:	89 44 24 08          	mov    %eax,0x8(%esp)
 300484d:	e9 66 ff ff ff       	jmp    30047b8 <__sfvwrite_r+0x25c>
 3004852:	66 90                	xchg   %ax,%ax
 3004854:	39 53 10             	cmp    %edx,0x10(%ebx)
 3004857:	72 43                	jb     300489c <__sfvwrite_r+0x340>
 3004859:	8b 4b 14             	mov    0x14(%ebx),%ecx
 300485c:	39 f9                	cmp    %edi,%ecx
 300485e:	77 3c                	ja     300489c <__sfvwrite_r+0x340>
 3004860:	81 ff fe ff ff 7f    	cmp    $0x7ffffffe,%edi
 3004866:	0f 86 c0 00 00 00    	jbe    300492c <__sfvwrite_r+0x3d0>
 300486c:	b8 ff ff ff 7f       	mov    $0x7fffffff,%eax
 3004871:	99                   	cltd   
 3004872:	f7 f9                	idiv   %ecx
 3004874:	0f af c1             	imul   %ecx,%eax
 3004877:	50                   	push   %eax
 3004878:	ff 74 24 08          	pushl  0x8(%esp)
 300487c:	ff 73 1c             	pushl  0x1c(%ebx)
 300487f:	ff 74 24 3c          	pushl  0x3c(%esp)
 3004883:	ff 53 24             	call   *0x24(%ebx)
 3004886:	89 c6                	mov    %eax,%esi
 3004888:	83 c4 10             	add    $0x10,%esp
 300488b:	85 c0                	test   %eax,%eax
 300488d:	0f 8e ed fe ff ff    	jle    3004780 <__sfvwrite_r+0x224>
 3004893:	29 f7                	sub    %esi,%edi
 3004895:	e9 86 fe ff ff       	jmp    3004720 <__sfvwrite_r+0x1c4>
 300489a:	66 90                	xchg   %ax,%ax
 300489c:	39 fe                	cmp    %edi,%esi
 300489e:	76 02                	jbe    30048a2 <__sfvwrite_r+0x346>
 30048a0:	89 fe                	mov    %edi,%esi
 30048a2:	50                   	push   %eax
 30048a3:	56                   	push   %esi
 30048a4:	ff 74 24 0c          	pushl  0xc(%esp)
 30048a8:	52                   	push   %edx
 30048a9:	e8 0a 08 00 00       	call   30050b8 <memmove>
 30048ae:	8b 43 08             	mov    0x8(%ebx),%eax
 30048b1:	29 f0                	sub    %esi,%eax
 30048b3:	89 43 08             	mov    %eax,0x8(%ebx)
 30048b6:	01 33                	add    %esi,(%ebx)
 30048b8:	83 c4 10             	add    $0x10,%esp
 30048bb:	85 c0                	test   %eax,%eax
 30048bd:	75 d4                	jne    3004893 <__sfvwrite_r+0x337>
 30048bf:	83 ec 08             	sub    $0x8,%esp
 30048c2:	53                   	push   %ebx
 30048c3:	ff 74 24 3c          	pushl  0x3c(%esp)
 30048c7:	e8 74 fa ff ff       	call   3004340 <_fflush_r>
 30048cc:	83 c4 10             	add    $0x10,%esp
 30048cf:	85 c0                	test   %eax,%eax
 30048d1:	0f 85 a9 fe ff ff    	jne    3004780 <__sfvwrite_r+0x224>
 30048d7:	29 f7                	sub    %esi,%edi
 30048d9:	e9 42 fe ff ff       	jmp    3004720 <__sfvwrite_r+0x1c4>
 30048de:	66 90                	xchg   %ax,%ax
 30048e0:	89 fe                	mov    %edi,%esi
 30048e2:	89 f9                	mov    %edi,%ecx
 30048e4:	e9 17 fe ff ff       	jmp    3004700 <__sfvwrite_r+0x1a4>
 30048e9:	8d 76 00             	lea    0x0(%esi),%esi
 30048ec:	83 ec 08             	sub    $0x8,%esp
 30048ef:	53                   	push   %ebx
 30048f0:	ff 74 24 3c          	pushl  0x3c(%esp)
 30048f4:	e8 47 fa ff ff       	call   3004340 <_fflush_r>
 30048f9:	83 c4 10             	add    $0x10,%esp
 30048fc:	85 c0                	test   %eax,%eax
 30048fe:	0f 84 fb fe ff ff    	je     30047ff <__sfvwrite_r+0x2a3>
 3004904:	e9 77 fe ff ff       	jmp    3004780 <__sfvwrite_r+0x224>
 3004909:	8d 76 00             	lea    0x0(%esi),%esi
 300490c:	50                   	push   %eax
 300490d:	52                   	push   %edx
 300490e:	89 54 24 0c          	mov    %edx,0xc(%esp)
 3004912:	55                   	push   %ebp
 3004913:	51                   	push   %ecx
 3004914:	e8 9f 07 00 00       	call   30050b8 <memmove>
 3004919:	8b 54 24 14          	mov    0x14(%esp),%edx
 300491d:	29 53 08             	sub    %edx,0x8(%ebx)
 3004920:	01 13                	add    %edx,(%ebx)
 3004922:	83 c4 10             	add    $0x10,%esp
 3004925:	89 d6                	mov    %edx,%esi
 3004927:	e9 c4 fe ff ff       	jmp    30047f0 <__sfvwrite_r+0x294>
 300492c:	89 f8                	mov    %edi,%eax
 300492e:	e9 3e ff ff ff       	jmp    3004871 <__sfvwrite_r+0x315>
 3004933:	90                   	nop
 3004934:	50                   	push   %eax
 3004935:	52                   	push   %edx
 3004936:	51                   	push   %ecx
 3004937:	ff 74 24 3c          	pushl  0x3c(%esp)
 300493b:	e8 50 02 00 00       	call   3004b90 <_realloc_r>
 3004940:	89 c6                	mov    %eax,%esi
 3004942:	83 c4 10             	add    $0x10,%esp
 3004945:	85 c0                	test   %eax,%eax
 3004947:	0f 85 97 fd ff ff    	jne    30046e4 <__sfvwrite_r+0x188>
 300494d:	83 ec 08             	sub    $0x8,%esp
 3004950:	ff 73 10             	pushl  0x10(%ebx)
 3004953:	ff 74 24 3c          	pushl  0x3c(%esp)
 3004957:	e8 fc e7 ff ff       	call   3003158 <_free_r>
 300495c:	8b 43 0c             	mov    0xc(%ebx),%eax
 300495f:	24 7f                	and    $0x7f,%al
 3004961:	8b 7c 24 40          	mov    0x40(%esp),%edi
 3004965:	c7 07 0c 00 00 00    	movl   $0xc,(%edi)
 300496b:	83 c4 10             	add    $0x10,%esp
 300496e:	e9 10 fe ff ff       	jmp    3004783 <__sfvwrite_r+0x227>
 3004973:	90                   	nop
 3004974:	8d 47 01             	lea    0x1(%edi),%eax
 3004977:	89 44 24 08          	mov    %eax,0x8(%esp)
 300497b:	e9 38 fe ff ff       	jmp    30047b8 <__sfvwrite_r+0x25c>
 3004980:	8b 44 24 30          	mov    0x30(%esp),%eax
 3004984:	c7 00 0c 00 00 00    	movl   $0xc,(%eax)
 300498a:	8b 43 0c             	mov    0xc(%ebx),%eax
 300498d:	e9 f1 fd ff ff       	jmp    3004783 <__sfvwrite_r+0x227>
 3004992:	b8 ff ff ff ff       	mov    $0xffffffff,%eax
 3004997:	e9 66 fc ff ff       	jmp    3004602 <__sfvwrite_r+0xa6>

0300499c <__sread>:
 300499c:	53                   	push   %ebx
 300499d:	83 ec 08             	sub    $0x8,%esp
 30049a0:	8b 5c 24 14          	mov    0x14(%esp),%ebx
 30049a4:	ff 74 24 1c          	pushl  0x1c(%esp)
 30049a8:	ff 74 24 1c          	pushl  0x1c(%esp)
 30049ac:	0f bf 43 0e          	movswl 0xe(%ebx),%eax
 30049b0:	50                   	push   %eax
 30049b1:	ff 74 24 1c          	pushl  0x1c(%esp)
 30049b5:	e8 9a 09 00 00       	call   3005354 <_read_r>
 30049ba:	83 c4 10             	add    $0x10,%esp
 30049bd:	85 c0                	test   %eax,%eax
 30049bf:	78 0b                	js     30049cc <__sread+0x30>
 30049c1:	01 43 50             	add    %eax,0x50(%ebx)
 30049c4:	83 c4 08             	add    $0x8,%esp
 30049c7:	5b                   	pop    %ebx
 30049c8:	c3                   	ret    
 30049c9:	8d 76 00             	lea    0x0(%esi),%esi
 30049cc:	66 81 63 0c ff ef    	andw   $0xefff,0xc(%ebx)
 30049d2:	83 c4 08             	add    $0x8,%esp
 30049d5:	5b                   	pop    %ebx
 30049d6:	c3                   	ret    
 30049d7:	90                   	nop

030049d8 <__seofread>:
 30049d8:	31 c0                	xor    %eax,%eax
 30049da:	c3                   	ret    
 30049db:	90                   	nop

030049dc <__swrite>:
 30049dc:	55                   	push   %ebp
 30049dd:	57                   	push   %edi
 30049de:	56                   	push   %esi
 30049df:	53                   	push   %ebx
 30049e0:	83 ec 0c             	sub    $0xc,%esp
 30049e3:	8b 74 24 20          	mov    0x20(%esp),%esi
 30049e7:	8b 5c 24 24          	mov    0x24(%esp),%ebx
 30049eb:	8b 7c 24 28          	mov    0x28(%esp),%edi
 30049ef:	8b 6c 24 2c          	mov    0x2c(%esp),%ebp
 30049f3:	8b 43 0c             	mov    0xc(%ebx),%eax
 30049f6:	0f bf 53 0e          	movswl 0xe(%ebx),%edx
 30049fa:	f6 c4 01             	test   $0x1,%ah
 30049fd:	75 25                	jne    3004a24 <__swrite+0x48>
 30049ff:	80 e4 ef             	and    $0xef,%ah
 3004a02:	66 89 43 0c          	mov    %ax,0xc(%ebx)
 3004a06:	89 6c 24 2c          	mov    %ebp,0x2c(%esp)
 3004a0a:	89 7c 24 28          	mov    %edi,0x28(%esp)
 3004a0e:	89 54 24 24          	mov    %edx,0x24(%esp)
 3004a12:	89 74 24 20          	mov    %esi,0x20(%esp)
 3004a16:	83 c4 0c             	add    $0xc,%esp
 3004a19:	5b                   	pop    %ebx
 3004a1a:	5e                   	pop    %esi
 3004a1b:	5f                   	pop    %edi
 3004a1c:	5d                   	pop    %ebp
 3004a1d:	e9 f2 08 00 00       	jmp    3005314 <_write_r>
 3004a22:	66 90                	xchg   %ax,%ax
 3004a24:	6a 02                	push   $0x2
 3004a26:	6a 00                	push   $0x0
 3004a28:	52                   	push   %edx
 3004a29:	56                   	push   %esi
 3004a2a:	e8 a5 08 00 00       	call   30052d4 <_lseek_r>
 3004a2f:	8b 43 0c             	mov    0xc(%ebx),%eax
 3004a32:	0f bf 53 0e          	movswl 0xe(%ebx),%edx
 3004a36:	83 c4 10             	add    $0x10,%esp
 3004a39:	eb c4                	jmp    30049ff <__swrite+0x23>
 3004a3b:	90                   	nop

03004a3c <__sseek>:
 3004a3c:	53                   	push   %ebx
 3004a3d:	83 ec 08             	sub    $0x8,%esp
 3004a40:	8b 5c 24 14          	mov    0x14(%esp),%ebx
 3004a44:	ff 74 24 1c          	pushl  0x1c(%esp)
 3004a48:	ff 74 24 1c          	pushl  0x1c(%esp)
 3004a4c:	0f bf 43 0e          	movswl 0xe(%ebx),%eax
 3004a50:	50                   	push   %eax
 3004a51:	ff 74 24 1c          	pushl  0x1c(%esp)
 3004a55:	e8 7a 08 00 00       	call   30052d4 <_lseek_r>
 3004a5a:	83 c4 10             	add    $0x10,%esp
 3004a5d:	83 f8 ff             	cmp    $0xffffffff,%eax
 3004a60:	74 0e                	je     3004a70 <__sseek+0x34>
 3004a62:	66 81 4b 0c 00 10    	orw    $0x1000,0xc(%ebx)
 3004a68:	89 43 50             	mov    %eax,0x50(%ebx)
 3004a6b:	83 c4 08             	add    $0x8,%esp
 3004a6e:	5b                   	pop    %ebx
 3004a6f:	c3                   	ret    
 3004a70:	66 81 63 0c ff ef    	andw   $0xefff,0xc(%ebx)
 3004a76:	83 c4 08             	add    $0x8,%esp
 3004a79:	5b                   	pop    %ebx
 3004a7a:	c3                   	ret    
 3004a7b:	90                   	nop

03004a7c <__sclose>:
 3004a7c:	8b 44 24 08          	mov    0x8(%esp),%eax
 3004a80:	0f bf 40 0e          	movswl 0xe(%eax),%eax
 3004a84:	89 44 24 08          	mov    %eax,0x8(%esp)
 3004a88:	e9 0f 08 00 00       	jmp    300529c <_close_r>
 3004a8d:	66 90                	xchg   %ax,%ax
 3004a8f:	90                   	nop

03004a90 <__swbuf_r>:
 3004a90:	55                   	push   %ebp
 3004a91:	57                   	push   %edi
 3004a92:	56                   	push   %esi
 3004a93:	53                   	push   %ebx
 3004a94:	83 ec 0c             	sub    $0xc,%esp
 3004a97:	8b 7c 24 20          	mov    0x20(%esp),%edi
 3004a9b:	8b 5c 24 24          	mov    0x24(%esp),%ebx
 3004a9f:	8b 74 24 28          	mov    0x28(%esp),%esi
 3004aa3:	85 ff                	test   %edi,%edi
 3004aa5:	74 0b                	je     3004ab2 <__swbuf_r+0x22>
 3004aa7:	8b 47 38             	mov    0x38(%edi),%eax
 3004aaa:	85 c0                	test   %eax,%eax
 3004aac:	0f 84 ae 00 00 00    	je     3004b60 <__swbuf_r+0xd0>
 3004ab2:	8b 46 18             	mov    0x18(%esi),%eax
 3004ab5:	89 46 08             	mov    %eax,0x8(%esi)
 3004ab8:	f6 46 0c 08          	testb  $0x8,0xc(%esi)
 3004abc:	74 3e                	je     3004afc <__swbuf_r+0x6c>
 3004abe:	8b 46 10             	mov    0x10(%esi),%eax
 3004ac1:	85 c0                	test   %eax,%eax
 3004ac3:	74 37                	je     3004afc <__swbuf_r+0x6c>
 3004ac5:	0f b6 eb             	movzbl %bl,%ebp
 3004ac8:	8b 16                	mov    (%esi),%edx
 3004aca:	89 d1                	mov    %edx,%ecx
 3004acc:	29 c1                	sub    %eax,%ecx
 3004ace:	89 c8                	mov    %ecx,%eax
 3004ad0:	39 4e 14             	cmp    %ecx,0x14(%esi)
 3004ad3:	7e 4b                	jle    3004b20 <__swbuf_r+0x90>
 3004ad5:	40                   	inc    %eax
 3004ad6:	ff 4e 08             	decl   0x8(%esi)
 3004ad9:	8d 4a 01             	lea    0x1(%edx),%ecx
 3004adc:	89 0e                	mov    %ecx,(%esi)
 3004ade:	88 1a                	mov    %bl,(%edx)
 3004ae0:	39 46 14             	cmp    %eax,0x14(%esi)
 3004ae3:	74 63                	je     3004b48 <__swbuf_r+0xb8>
 3004ae5:	f6 46 0c 01          	testb  $0x1,0xc(%esi)
 3004ae9:	74 05                	je     3004af0 <__swbuf_r+0x60>
 3004aeb:	83 fd 0a             	cmp    $0xa,%ebp
 3004aee:	74 58                	je     3004b48 <__swbuf_r+0xb8>
 3004af0:	89 e8                	mov    %ebp,%eax
 3004af2:	83 c4 0c             	add    $0xc,%esp
 3004af5:	5b                   	pop    %ebx
 3004af6:	5e                   	pop    %esi
 3004af7:	5f                   	pop    %edi
 3004af8:	5d                   	pop    %ebp
 3004af9:	c3                   	ret    
 3004afa:	66 90                	xchg   %ax,%ax
 3004afc:	83 ec 08             	sub    $0x8,%esp
 3004aff:	56                   	push   %esi
 3004b00:	57                   	push   %edi
 3004b01:	e8 4e e3 ff ff       	call   3002e54 <__swsetup_r>
 3004b06:	83 c4 10             	add    $0x10,%esp
 3004b09:	85 c0                	test   %eax,%eax
 3004b0b:	75 4c                	jne    3004b59 <__swbuf_r+0xc9>
 3004b0d:	8b 46 10             	mov    0x10(%esi),%eax
 3004b10:	0f b6 eb             	movzbl %bl,%ebp
 3004b13:	8b 16                	mov    (%esi),%edx
 3004b15:	89 d1                	mov    %edx,%ecx
 3004b17:	29 c1                	sub    %eax,%ecx
 3004b19:	89 c8                	mov    %ecx,%eax
 3004b1b:	39 4e 14             	cmp    %ecx,0x14(%esi)
 3004b1e:	7f b5                	jg     3004ad5 <__swbuf_r+0x45>
 3004b20:	83 ec 08             	sub    $0x8,%esp
 3004b23:	56                   	push   %esi
 3004b24:	57                   	push   %edi
 3004b25:	e8 16 f8 ff ff       	call   3004340 <_fflush_r>
 3004b2a:	83 c4 10             	add    $0x10,%esp
 3004b2d:	85 c0                	test   %eax,%eax
 3004b2f:	75 28                	jne    3004b59 <__swbuf_r+0xc9>
 3004b31:	8b 16                	mov    (%esi),%edx
 3004b33:	b8 01 00 00 00       	mov    $0x1,%eax
 3004b38:	ff 4e 08             	decl   0x8(%esi)
 3004b3b:	8d 4a 01             	lea    0x1(%edx),%ecx
 3004b3e:	89 0e                	mov    %ecx,(%esi)
 3004b40:	88 1a                	mov    %bl,(%edx)
 3004b42:	39 46 14             	cmp    %eax,0x14(%esi)
 3004b45:	75 9e                	jne    3004ae5 <__swbuf_r+0x55>
 3004b47:	90                   	nop
 3004b48:	83 ec 08             	sub    $0x8,%esp
 3004b4b:	56                   	push   %esi
 3004b4c:	57                   	push   %edi
 3004b4d:	e8 ee f7 ff ff       	call   3004340 <_fflush_r>
 3004b52:	83 c4 10             	add    $0x10,%esp
 3004b55:	85 c0                	test   %eax,%eax
 3004b57:	74 97                	je     3004af0 <__swbuf_r+0x60>
 3004b59:	bd ff ff ff ff       	mov    $0xffffffff,%ebp
 3004b5e:	eb 90                	jmp    3004af0 <__swbuf_r+0x60>
 3004b60:	83 ec 0c             	sub    $0xc,%esp
 3004b63:	57                   	push   %edi
 3004b64:	e8 43 d5 ff ff       	call   30020ac <__sinit>
 3004b69:	83 c4 10             	add    $0x10,%esp
 3004b6c:	e9 41 ff ff ff       	jmp    3004ab2 <__swbuf_r+0x22>
 3004b71:	8d 76 00             	lea    0x0(%esi),%esi

03004b74 <__swbuf>:
 3004b74:	83 ec 0c             	sub    $0xc,%esp
 3004b77:	e8 f0 c5 ff ff       	call   300116c <__getreent>
 3004b7c:	52                   	push   %edx
 3004b7d:	ff 74 24 18          	pushl  0x18(%esp)
 3004b81:	ff 74 24 18          	pushl  0x18(%esp)
 3004b85:	50                   	push   %eax
 3004b86:	e8 05 ff ff ff       	call   3004a90 <__swbuf_r>
 3004b8b:	83 c4 1c             	add    $0x1c,%esp
 3004b8e:	c3                   	ret    
 3004b8f:	90                   	nop

03004b90 <_realloc_r>:
 3004b90:	55                   	push   %ebp
 3004b91:	57                   	push   %edi
 3004b92:	56                   	push   %esi
 3004b93:	53                   	push   %ebx
 3004b94:	83 ec 2c             	sub    $0x2c,%esp
 3004b97:	8b 6c 24 40          	mov    0x40(%esp),%ebp
 3004b9b:	8b 5c 24 44          	mov    0x44(%esp),%ebx
 3004b9f:	8b 7c 24 48          	mov    0x48(%esp),%edi
 3004ba3:	85 db                	test   %ebx,%ebx
 3004ba5:	0f 84 55 02 00 00    	je     3004e00 <_realloc_r+0x270>
 3004bab:	83 ec 0c             	sub    $0xc,%esp
 3004bae:	55                   	push   %ebp
 3004baf:	e8 98 e8 ff ff       	call   300344c <__malloc_lock>
 3004bb4:	8d 47 0b             	lea    0xb(%edi),%eax
 3004bb7:	83 c4 10             	add    $0x10,%esp
 3004bba:	83 f8 16             	cmp    $0x16,%eax
 3004bbd:	0f 87 3d 01 00 00    	ja     3004d00 <_realloc_r+0x170>
 3004bc3:	c7 44 24 08 10 00 00 	movl   $0x10,0x8(%esp)
 3004bca:	00 
 3004bcb:	c7 44 24 0c 10 00 00 	movl   $0x10,0xc(%esp)
 3004bd2:	00 
 3004bd3:	3b 7c 24 08          	cmp    0x8(%esp),%edi
 3004bd7:	0f 87 34 01 00 00    	ja     3004d11 <_realloc_r+0x181>
 3004bdd:	8d 43 f8             	lea    -0x8(%ebx),%eax
 3004be0:	89 44 24 10          	mov    %eax,0x10(%esp)
 3004be4:	8b 43 fc             	mov    -0x4(%ebx),%eax
 3004be7:	89 c6                	mov    %eax,%esi
 3004be9:	83 e6 fc             	and    $0xfffffffc,%esi
 3004bec:	8d 4c 33 f8          	lea    -0x8(%ebx,%esi,1),%ecx
 3004bf0:	3b 74 24 0c          	cmp    0xc(%esp),%esi
 3004bf4:	0f 8d a2 01 00 00    	jge    3004d9c <_realloc_r+0x20c>
 3004bfa:	8b 51 04             	mov    0x4(%ecx),%edx
 3004bfd:	89 54 24 14          	mov    %edx,0x14(%esp)
 3004c01:	39 0d c8 74 00 03    	cmp    %ecx,0x30074c8
 3004c07:	0f 84 33 02 00 00    	je     3004e40 <_realloc_r+0x2b0>
 3004c0d:	83 e2 fe             	and    $0xfffffffe,%edx
 3004c10:	f6 44 11 04 01       	testb  $0x1,0x4(%ecx,%edx,1)
 3004c15:	0f 85 c1 01 00 00    	jne    3004ddc <_realloc_r+0x24c>
 3004c1b:	8b 54 24 14          	mov    0x14(%esp),%edx
 3004c1f:	83 e2 fc             	and    $0xfffffffc,%edx
 3004c22:	89 54 24 18          	mov    %edx,0x18(%esp)
 3004c26:	01 f2                	add    %esi,%edx
 3004c28:	89 54 24 14          	mov    %edx,0x14(%esp)
 3004c2c:	3b 54 24 0c          	cmp    0xc(%esp),%edx
 3004c30:	0f 8d 46 03 00 00    	jge    3004f7c <_realloc_r+0x3ec>
 3004c36:	a8 01                	test   $0x1,%al
 3004c38:	75 3a                	jne    3004c74 <_realloc_r+0xe4>
 3004c3a:	8d 43 f8             	lea    -0x8(%ebx),%eax
 3004c3d:	2b 43 f8             	sub    -0x8(%ebx),%eax
 3004c40:	89 44 24 14          	mov    %eax,0x14(%esp)
 3004c44:	8b 40 04             	mov    0x4(%eax),%eax
 3004c47:	89 44 24 1c          	mov    %eax,0x1c(%esp)
 3004c4b:	83 e0 fc             	and    $0xfffffffc,%eax
 3004c4e:	8b 54 24 18          	mov    0x18(%esp),%edx
 3004c52:	01 c2                	add    %eax,%edx
 3004c54:	01 f2                	add    %esi,%edx
 3004c56:	89 54 24 18          	mov    %edx,0x18(%esp)
 3004c5a:	3b 54 24 0c          	cmp    0xc(%esp),%edx
 3004c5e:	0f 8d c0 00 00 00    	jge    3004d24 <_realloc_r+0x194>
 3004c64:	01 f0                	add    %esi,%eax
 3004c66:	89 44 24 18          	mov    %eax,0x18(%esp)
 3004c6a:	3b 44 24 0c          	cmp    0xc(%esp),%eax
 3004c6e:	0f 8d bc 00 00 00    	jge    3004d30 <_realloc_r+0x1a0>
 3004c74:	83 ec 08             	sub    $0x8,%esp
 3004c77:	57                   	push   %edi
 3004c78:	55                   	push   %ebp
 3004c79:	e8 d6 e7 ff ff       	call   3003454 <_malloc_r>
 3004c7e:	89 c7                	mov    %eax,%edi
 3004c80:	83 c4 10             	add    $0x10,%esp
 3004c83:	85 c0                	test   %eax,%eax
 3004c85:	0f 84 80 03 00 00    	je     300500b <_realloc_r+0x47b>
 3004c8b:	8b 43 fc             	mov    -0x4(%ebx),%eax
 3004c8e:	83 e0 fe             	and    $0xfffffffe,%eax
 3004c91:	03 44 24 10          	add    0x10(%esp),%eax
 3004c95:	8d 57 f8             	lea    -0x8(%edi),%edx
 3004c98:	39 d0                	cmp    %edx,%eax
 3004c9a:	0f 84 f8 02 00 00    	je     3004f98 <_realloc_r+0x408>
 3004ca0:	83 ee 04             	sub    $0x4,%esi
 3004ca3:	83 fe 24             	cmp    $0x24,%esi
 3004ca6:	0f 87 00 03 00 00    	ja     3004fac <_realloc_r+0x41c>
 3004cac:	8b 0b                	mov    (%ebx),%ecx
 3004cae:	83 fe 13             	cmp    $0x13,%esi
 3004cb1:	0f 86 69 02 00 00    	jbe    3004f20 <_realloc_r+0x390>
 3004cb7:	89 0f                	mov    %ecx,(%edi)
 3004cb9:	8b 43 04             	mov    0x4(%ebx),%eax
 3004cbc:	89 47 04             	mov    %eax,0x4(%edi)
 3004cbf:	83 fe 1b             	cmp    $0x1b,%esi
 3004cc2:	0f 87 00 03 00 00    	ja     3004fc8 <_realloc_r+0x438>
 3004cc8:	8d 53 08             	lea    0x8(%ebx),%edx
 3004ccb:	8d 47 08             	lea    0x8(%edi),%eax
 3004cce:	8b 4b 08             	mov    0x8(%ebx),%ecx
 3004cd1:	89 08                	mov    %ecx,(%eax)
 3004cd3:	8b 4a 04             	mov    0x4(%edx),%ecx
 3004cd6:	89 48 04             	mov    %ecx,0x4(%eax)
 3004cd9:	8b 52 08             	mov    0x8(%edx),%edx
 3004cdc:	89 50 08             	mov    %edx,0x8(%eax)
 3004cdf:	83 ec 08             	sub    $0x8,%esp
 3004ce2:	53                   	push   %ebx
 3004ce3:	55                   	push   %ebp
 3004ce4:	e8 6f e4 ff ff       	call   3003158 <_free_r>
 3004ce9:	89 2c 24             	mov    %ebp,(%esp)
 3004cec:	e8 5f e7 ff ff       	call   3003450 <__malloc_unlock>
 3004cf1:	83 c4 10             	add    $0x10,%esp
 3004cf4:	89 f8                	mov    %edi,%eax
 3004cf6:	83 c4 2c             	add    $0x2c,%esp
 3004cf9:	5b                   	pop    %ebx
 3004cfa:	5e                   	pop    %esi
 3004cfb:	5f                   	pop    %edi
 3004cfc:	5d                   	pop    %ebp
 3004cfd:	c3                   	ret    
 3004cfe:	66 90                	xchg   %ax,%ax
 3004d00:	83 e0 f8             	and    $0xfffffff8,%eax
 3004d03:	89 44 24 08          	mov    %eax,0x8(%esp)
 3004d07:	89 44 24 0c          	mov    %eax,0xc(%esp)
 3004d0b:	0f 89 c2 fe ff ff    	jns    3004bd3 <_realloc_r+0x43>
 3004d11:	c7 45 00 0c 00 00 00 	movl   $0xc,0x0(%ebp)
 3004d18:	31 ff                	xor    %edi,%edi
 3004d1a:	89 f8                	mov    %edi,%eax
 3004d1c:	83 c4 2c             	add    $0x2c,%esp
 3004d1f:	5b                   	pop    %ebx
 3004d20:	5e                   	pop    %esi
 3004d21:	5f                   	pop    %edi
 3004d22:	5d                   	pop    %ebp
 3004d23:	c3                   	ret    
 3004d24:	8b 41 0c             	mov    0xc(%ecx),%eax
 3004d27:	8b 51 08             	mov    0x8(%ecx),%edx
 3004d2a:	89 42 0c             	mov    %eax,0xc(%edx)
 3004d2d:	89 50 08             	mov    %edx,0x8(%eax)
 3004d30:	8b 4c 24 14          	mov    0x14(%esp),%ecx
 3004d34:	8b 41 0c             	mov    0xc(%ecx),%eax
 3004d37:	8b 51 08             	mov    0x8(%ecx),%edx
 3004d3a:	89 42 0c             	mov    %eax,0xc(%edx)
 3004d3d:	89 50 08             	mov    %edx,0x8(%eax)
 3004d40:	89 c8                	mov    %ecx,%eax
 3004d42:	8d 79 08             	lea    0x8(%ecx),%edi
 3004d45:	83 ee 04             	sub    $0x4,%esi
 3004d48:	03 4c 24 18          	add    0x18(%esp),%ecx
 3004d4c:	83 fe 24             	cmp    $0x24,%esi
 3004d4f:	0f 87 d7 01 00 00    	ja     3004f2c <_realloc_r+0x39c>
 3004d55:	8b 13                	mov    (%ebx),%edx
 3004d57:	83 fe 13             	cmp    $0x13,%esi
 3004d5a:	0f 86 60 02 00 00    	jbe    3004fc0 <_realloc_r+0x430>
 3004d60:	89 50 08             	mov    %edx,0x8(%eax)
 3004d63:	8b 43 04             	mov    0x4(%ebx),%eax
 3004d66:	8b 54 24 14          	mov    0x14(%esp),%edx
 3004d6a:	89 42 0c             	mov    %eax,0xc(%edx)
 3004d6d:	83 fe 1b             	cmp    $0x1b,%esi
 3004d70:	0f 87 72 02 00 00    	ja     3004fe8 <_realloc_r+0x458>
 3004d76:	8d 42 10             	lea    0x10(%edx),%eax
 3004d79:	8b 53 08             	mov    0x8(%ebx),%edx
 3004d7c:	83 c3 08             	add    $0x8,%ebx
 3004d7f:	89 10                	mov    %edx,(%eax)
 3004d81:	8b 53 04             	mov    0x4(%ebx),%edx
 3004d84:	89 50 04             	mov    %edx,0x4(%eax)
 3004d87:	8b 53 08             	mov    0x8(%ebx),%edx
 3004d8a:	89 50 08             	mov    %edx,0x8(%eax)
 3004d8d:	89 fb                	mov    %edi,%ebx
 3004d8f:	8b 74 24 18          	mov    0x18(%esp),%esi
 3004d93:	8b 44 24 14          	mov    0x14(%esp),%eax
 3004d97:	89 44 24 10          	mov    %eax,0x10(%esp)
 3004d9b:	90                   	nop
 3004d9c:	89 f2                	mov    %esi,%edx
 3004d9e:	2b 54 24 08          	sub    0x8(%esp),%edx
 3004da2:	8b 44 24 10          	mov    0x10(%esp),%eax
 3004da6:	8b 40 04             	mov    0x4(%eax),%eax
 3004da9:	89 44 24 0c          	mov    %eax,0xc(%esp)
 3004dad:	83 e0 01             	and    $0x1,%eax
 3004db0:	83 fa 0f             	cmp    $0xf,%edx
 3004db3:	77 5b                	ja     3004e10 <_realloc_r+0x280>
 3004db5:	09 c6                	or     %eax,%esi
 3004db7:	8b 44 24 10          	mov    0x10(%esp),%eax
 3004dbb:	89 70 04             	mov    %esi,0x4(%eax)
 3004dbe:	83 49 04 01          	orl    $0x1,0x4(%ecx)
 3004dc2:	83 ec 0c             	sub    $0xc,%esp
 3004dc5:	55                   	push   %ebp
 3004dc6:	e8 85 e6 ff ff       	call   3003450 <__malloc_unlock>
 3004dcb:	83 c4 10             	add    $0x10,%esp
 3004dce:	89 df                	mov    %ebx,%edi
 3004dd0:	89 f8                	mov    %edi,%eax
 3004dd2:	83 c4 2c             	add    $0x2c,%esp
 3004dd5:	5b                   	pop    %ebx
 3004dd6:	5e                   	pop    %esi
 3004dd7:	5f                   	pop    %edi
 3004dd8:	5d                   	pop    %ebp
 3004dd9:	c3                   	ret    
 3004dda:	66 90                	xchg   %ax,%ax
 3004ddc:	a8 01                	test   $0x1,%al
 3004dde:	0f 85 90 fe ff ff    	jne    3004c74 <_realloc_r+0xe4>
 3004de4:	8d 43 f8             	lea    -0x8(%ebx),%eax
 3004de7:	2b 43 f8             	sub    -0x8(%ebx),%eax
 3004dea:	89 44 24 14          	mov    %eax,0x14(%esp)
 3004dee:	8b 40 04             	mov    0x4(%eax),%eax
 3004df1:	89 44 24 18          	mov    %eax,0x18(%esp)
 3004df5:	83 e0 fc             	and    $0xfffffffc,%eax
 3004df8:	e9 67 fe ff ff       	jmp    3004c64 <_realloc_r+0xd4>
 3004dfd:	8d 76 00             	lea    0x0(%esi),%esi
 3004e00:	89 7c 24 44          	mov    %edi,0x44(%esp)
 3004e04:	83 c4 2c             	add    $0x2c,%esp
 3004e07:	5b                   	pop    %ebx
 3004e08:	5e                   	pop    %esi
 3004e09:	5f                   	pop    %edi
 3004e0a:	5d                   	pop    %ebp
 3004e0b:	e9 44 e6 ff ff       	jmp    3003454 <_malloc_r>
 3004e10:	8b 7c 24 10          	mov    0x10(%esp),%edi
 3004e14:	8b 74 24 08          	mov    0x8(%esp),%esi
 3004e18:	01 fe                	add    %edi,%esi
 3004e1a:	0b 44 24 08          	or     0x8(%esp),%eax
 3004e1e:	89 47 04             	mov    %eax,0x4(%edi)
 3004e21:	83 ca 01             	or     $0x1,%edx
 3004e24:	89 56 04             	mov    %edx,0x4(%esi)
 3004e27:	83 49 04 01          	orl    $0x1,0x4(%ecx)
 3004e2b:	83 ec 08             	sub    $0x8,%esp
 3004e2e:	8d 4e 08             	lea    0x8(%esi),%ecx
 3004e31:	51                   	push   %ecx
 3004e32:	55                   	push   %ebp
 3004e33:	e8 20 e3 ff ff       	call   3003158 <_free_r>
 3004e38:	83 c4 10             	add    $0x10,%esp
 3004e3b:	eb 85                	jmp    3004dc2 <_realloc_r+0x232>
 3004e3d:	8d 76 00             	lea    0x0(%esi),%esi
 3004e40:	8b 4c 24 14          	mov    0x14(%esp),%ecx
 3004e44:	83 e1 fc             	and    $0xfffffffc,%ecx
 3004e47:	89 4c 24 18          	mov    %ecx,0x18(%esp)
 3004e4b:	01 f1                	add    %esi,%ecx
 3004e4d:	8b 54 24 08          	mov    0x8(%esp),%edx
 3004e51:	83 c2 10             	add    $0x10,%edx
 3004e54:	39 d1                	cmp    %edx,%ecx
 3004e56:	0f 8d f8 00 00 00    	jge    3004f54 <_realloc_r+0x3c4>
 3004e5c:	a8 01                	test   $0x1,%al
 3004e5e:	0f 85 10 fe ff ff    	jne    3004c74 <_realloc_r+0xe4>
 3004e64:	8d 43 f8             	lea    -0x8(%ebx),%eax
 3004e67:	2b 43 f8             	sub    -0x8(%ebx),%eax
 3004e6a:	89 44 24 14          	mov    %eax,0x14(%esp)
 3004e6e:	8b 40 04             	mov    0x4(%eax),%eax
 3004e71:	89 44 24 1c          	mov    %eax,0x1c(%esp)
 3004e75:	83 e0 fc             	and    $0xfffffffc,%eax
 3004e78:	8b 4c 24 18          	mov    0x18(%esp),%ecx
 3004e7c:	01 c1                	add    %eax,%ecx
 3004e7e:	01 f1                	add    %esi,%ecx
 3004e80:	39 ca                	cmp    %ecx,%edx
 3004e82:	0f 8f dc fd ff ff    	jg     3004c64 <_realloc_r+0xd4>
 3004e88:	8b 7c 24 14          	mov    0x14(%esp),%edi
 3004e8c:	8b 47 0c             	mov    0xc(%edi),%eax
 3004e8f:	8b 57 08             	mov    0x8(%edi),%edx
 3004e92:	89 42 0c             	mov    %eax,0xc(%edx)
 3004e95:	89 50 08             	mov    %edx,0x8(%eax)
 3004e98:	89 f8                	mov    %edi,%eax
 3004e9a:	8d 7f 08             	lea    0x8(%edi),%edi
 3004e9d:	83 ee 04             	sub    $0x4,%esi
 3004ea0:	83 fe 24             	cmp    $0x24,%esi
 3004ea3:	0f 87 b2 01 00 00    	ja     300505b <_realloc_r+0x4cb>
 3004ea9:	8b 13                	mov    (%ebx),%edx
 3004eab:	83 fe 13             	cmp    $0x13,%esi
 3004eae:	0f 86 a0 01 00 00    	jbe    3005054 <_realloc_r+0x4c4>
 3004eb4:	89 50 08             	mov    %edx,0x8(%eax)
 3004eb7:	8b 43 04             	mov    0x4(%ebx),%eax
 3004eba:	8b 54 24 14          	mov    0x14(%esp),%edx
 3004ebe:	89 42 0c             	mov    %eax,0xc(%edx)
 3004ec1:	83 fe 1b             	cmp    $0x1b,%esi
 3004ec4:	0f 87 aa 01 00 00    	ja     3005074 <_realloc_r+0x4e4>
 3004eca:	89 d0                	mov    %edx,%eax
 3004ecc:	83 c0 10             	add    $0x10,%eax
 3004ecf:	8b 53 08             	mov    0x8(%ebx),%edx
 3004ed2:	83 c3 08             	add    $0x8,%ebx
 3004ed5:	89 10                	mov    %edx,(%eax)
 3004ed7:	8b 53 04             	mov    0x4(%ebx),%edx
 3004eda:	89 50 04             	mov    %edx,0x4(%eax)
 3004edd:	8b 53 08             	mov    0x8(%ebx),%edx
 3004ee0:	89 50 08             	mov    %edx,0x8(%eax)
 3004ee3:	8b 5c 24 14          	mov    0x14(%esp),%ebx
 3004ee7:	89 d8                	mov    %ebx,%eax
 3004ee9:	8b 74 24 08          	mov    0x8(%esp),%esi
 3004eed:	01 f0                	add    %esi,%eax
 3004eef:	a3 c8 74 00 03       	mov    %eax,0x30074c8
 3004ef4:	29 f1                	sub    %esi,%ecx
 3004ef6:	89 ca                	mov    %ecx,%edx
 3004ef8:	83 ca 01             	or     $0x1,%edx
 3004efb:	89 50 04             	mov    %edx,0x4(%eax)
 3004efe:	8b 43 04             	mov    0x4(%ebx),%eax
 3004f01:	89 44 24 08          	mov    %eax,0x8(%esp)
 3004f05:	83 e0 01             	and    $0x1,%eax
 3004f08:	09 f0                	or     %esi,%eax
 3004f0a:	89 43 04             	mov    %eax,0x4(%ebx)
 3004f0d:	83 ec 0c             	sub    $0xc,%esp
 3004f10:	55                   	push   %ebp
 3004f11:	e8 3a e5 ff ff       	call   3003450 <__malloc_unlock>
 3004f16:	83 c4 10             	add    $0x10,%esp
 3004f19:	e9 fc fd ff ff       	jmp    3004d1a <_realloc_r+0x18a>
 3004f1e:	66 90                	xchg   %ax,%ax
 3004f20:	89 f8                	mov    %edi,%eax
 3004f22:	89 da                	mov    %ebx,%edx
 3004f24:	e9 a8 fd ff ff       	jmp    3004cd1 <_realloc_r+0x141>
 3004f29:	8d 76 00             	lea    0x0(%esi),%esi
 3004f2c:	89 4c 24 0c          	mov    %ecx,0xc(%esp)
 3004f30:	52                   	push   %edx
 3004f31:	56                   	push   %esi
 3004f32:	53                   	push   %ebx
 3004f33:	57                   	push   %edi
 3004f34:	e8 7f 01 00 00       	call   30050b8 <memmove>
 3004f39:	83 c4 10             	add    $0x10,%esp
 3004f3c:	89 fb                	mov    %edi,%ebx
 3004f3e:	8b 74 24 18          	mov    0x18(%esp),%esi
 3004f42:	8b 44 24 14          	mov    0x14(%esp),%eax
 3004f46:	89 44 24 10          	mov    %eax,0x10(%esp)
 3004f4a:	8b 4c 24 0c          	mov    0xc(%esp),%ecx
 3004f4e:	e9 49 fe ff ff       	jmp    3004d9c <_realloc_r+0x20c>
 3004f53:	90                   	nop
 3004f54:	8d 43 f8             	lea    -0x8(%ebx),%eax
 3004f57:	8b 7c 24 08          	mov    0x8(%esp),%edi
 3004f5b:	01 f8                	add    %edi,%eax
 3004f5d:	a3 c8 74 00 03       	mov    %eax,0x30074c8
 3004f62:	29 f9                	sub    %edi,%ecx
 3004f64:	89 ca                	mov    %ecx,%edx
 3004f66:	83 ca 01             	or     $0x1,%edx
 3004f69:	89 50 04             	mov    %edx,0x4(%eax)
 3004f6c:	8b 43 fc             	mov    -0x4(%ebx),%eax
 3004f6f:	83 e0 01             	and    $0x1,%eax
 3004f72:	09 f8                	or     %edi,%eax
 3004f74:	89 43 fc             	mov    %eax,-0x4(%ebx)
 3004f77:	e9 46 fe ff ff       	jmp    3004dc2 <_realloc_r+0x232>
 3004f7c:	8b 41 0c             	mov    0xc(%ecx),%eax
 3004f7f:	8b 51 08             	mov    0x8(%ecx),%edx
 3004f82:	89 42 0c             	mov    %eax,0xc(%edx)
 3004f85:	89 50 08             	mov    %edx,0x8(%eax)
 3004f88:	8d 4b f8             	lea    -0x8(%ebx),%ecx
 3004f8b:	8b 74 24 14          	mov    0x14(%esp),%esi
 3004f8f:	01 f1                	add    %esi,%ecx
 3004f91:	e9 06 fe ff ff       	jmp    3004d9c <_realloc_r+0x20c>
 3004f96:	66 90                	xchg   %ax,%ax
 3004f98:	8b 47 fc             	mov    -0x4(%edi),%eax
 3004f9b:	83 e0 fc             	and    $0xfffffffc,%eax
 3004f9e:	01 c6                	add    %eax,%esi
 3004fa0:	8d 43 f8             	lea    -0x8(%ebx),%eax
 3004fa3:	8d 0c 30             	lea    (%eax,%esi,1),%ecx
 3004fa6:	e9 f1 fd ff ff       	jmp    3004d9c <_realloc_r+0x20c>
 3004fab:	90                   	nop
 3004fac:	50                   	push   %eax
 3004fad:	56                   	push   %esi
 3004fae:	53                   	push   %ebx
 3004faf:	57                   	push   %edi
 3004fb0:	e8 03 01 00 00       	call   30050b8 <memmove>
 3004fb5:	83 c4 10             	add    $0x10,%esp
 3004fb8:	e9 22 fd ff ff       	jmp    3004cdf <_realloc_r+0x14f>
 3004fbd:	8d 76 00             	lea    0x0(%esi),%esi
 3004fc0:	89 f8                	mov    %edi,%eax
 3004fc2:	e9 b8 fd ff ff       	jmp    3004d7f <_realloc_r+0x1ef>
 3004fc7:	90                   	nop
 3004fc8:	8b 43 08             	mov    0x8(%ebx),%eax
 3004fcb:	89 47 08             	mov    %eax,0x8(%edi)
 3004fce:	8b 43 0c             	mov    0xc(%ebx),%eax
 3004fd1:	89 47 0c             	mov    %eax,0xc(%edi)
 3004fd4:	83 fe 24             	cmp    $0x24,%esi
 3004fd7:	74 43                	je     300501c <_realloc_r+0x48c>
 3004fd9:	8d 53 10             	lea    0x10(%ebx),%edx
 3004fdc:	8d 47 10             	lea    0x10(%edi),%eax
 3004fdf:	8b 4b 10             	mov    0x10(%ebx),%ecx
 3004fe2:	e9 ea fc ff ff       	jmp    3004cd1 <_realloc_r+0x141>
 3004fe7:	90                   	nop
 3004fe8:	8b 43 08             	mov    0x8(%ebx),%eax
 3004feb:	8b 54 24 14          	mov    0x14(%esp),%edx
 3004fef:	89 42 10             	mov    %eax,0x10(%edx)
 3004ff2:	8b 43 0c             	mov    0xc(%ebx),%eax
 3004ff5:	89 42 14             	mov    %eax,0x14(%edx)
 3004ff8:	83 fe 24             	cmp    $0x24,%esi
 3004ffb:	74 39                	je     3005036 <_realloc_r+0x4a6>
 3004ffd:	8d 42 18             	lea    0x18(%edx),%eax
 3005000:	8b 53 10             	mov    0x10(%ebx),%edx
 3005003:	83 c3 10             	add    $0x10,%ebx
 3005006:	e9 74 fd ff ff       	jmp    3004d7f <_realloc_r+0x1ef>
 300500b:	83 ec 0c             	sub    $0xc,%esp
 300500e:	55                   	push   %ebp
 300500f:	e8 3c e4 ff ff       	call   3003450 <__malloc_unlock>
 3005014:	83 c4 10             	add    $0x10,%esp
 3005017:	e9 fe fc ff ff       	jmp    3004d1a <_realloc_r+0x18a>
 300501c:	8b 43 10             	mov    0x10(%ebx),%eax
 300501f:	89 47 10             	mov    %eax,0x10(%edi)
 3005022:	8d 53 18             	lea    0x18(%ebx),%edx
 3005025:	8d 47 18             	lea    0x18(%edi),%eax
 3005028:	8b 4b 14             	mov    0x14(%ebx),%ecx
 300502b:	89 4f 14             	mov    %ecx,0x14(%edi)
 300502e:	8b 4b 18             	mov    0x18(%ebx),%ecx
 3005031:	e9 9b fc ff ff       	jmp    3004cd1 <_realloc_r+0x141>
 3005036:	8b 43 10             	mov    0x10(%ebx),%eax
 3005039:	8b 74 24 14          	mov    0x14(%esp),%esi
 300503d:	89 46 18             	mov    %eax,0x18(%esi)
 3005040:	8d 46 20             	lea    0x20(%esi),%eax
 3005043:	8b 53 14             	mov    0x14(%ebx),%edx
 3005046:	89 56 1c             	mov    %edx,0x1c(%esi)
 3005049:	8b 53 18             	mov    0x18(%ebx),%edx
 300504c:	83 c3 18             	add    $0x18,%ebx
 300504f:	e9 2b fd ff ff       	jmp    3004d7f <_realloc_r+0x1ef>
 3005054:	89 f8                	mov    %edi,%eax
 3005056:	e9 7a fe ff ff       	jmp    3004ed5 <_realloc_r+0x345>
 300505b:	89 4c 24 0c          	mov    %ecx,0xc(%esp)
 300505f:	51                   	push   %ecx
 3005060:	56                   	push   %esi
 3005061:	53                   	push   %ebx
 3005062:	57                   	push   %edi
 3005063:	e8 50 00 00 00       	call   30050b8 <memmove>
 3005068:	83 c4 10             	add    $0x10,%esp
 300506b:	8b 4c 24 0c          	mov    0xc(%esp),%ecx
 300506f:	e9 6f fe ff ff       	jmp    3004ee3 <_realloc_r+0x353>
 3005074:	8b 43 08             	mov    0x8(%ebx),%eax
 3005077:	8b 54 24 14          	mov    0x14(%esp),%edx
 300507b:	89 42 10             	mov    %eax,0x10(%edx)
 300507e:	8b 43 0c             	mov    0xc(%ebx),%eax
 3005081:	89 42 14             	mov    %eax,0x14(%edx)
 3005084:	83 fe 24             	cmp    $0x24,%esi
 3005087:	74 0e                	je     3005097 <_realloc_r+0x507>
 3005089:	8d 42 18             	lea    0x18(%edx),%eax
 300508c:	8b 53 10             	mov    0x10(%ebx),%edx
 300508f:	83 c3 10             	add    $0x10,%ebx
 3005092:	e9 3e fe ff ff       	jmp    3004ed5 <_realloc_r+0x345>
 3005097:	8b 43 10             	mov    0x10(%ebx),%eax
 300509a:	8b 74 24 14          	mov    0x14(%esp),%esi
 300509e:	89 46 18             	mov    %eax,0x18(%esi)
 30050a1:	8d 46 20             	lea    0x20(%esi),%eax
 30050a4:	8b 53 14             	mov    0x14(%ebx),%edx
 30050a7:	89 56 1c             	mov    %edx,0x1c(%esi)
 30050aa:	8b 53 18             	mov    0x18(%ebx),%edx
 30050ad:	83 c3 18             	add    $0x18,%ebx
 30050b0:	e9 20 fe ff ff       	jmp    3004ed5 <_realloc_r+0x345>
 30050b5:	66 90                	xchg   %ax,%ax
 30050b7:	90                   	nop

030050b8 <memmove>:
 30050b8:	55                   	push   %ebp
 30050b9:	57                   	push   %edi
 30050ba:	56                   	push   %esi
 30050bb:	53                   	push   %ebx
 30050bc:	8b 5c 24 14          	mov    0x14(%esp),%ebx
 30050c0:	8b 54 24 18          	mov    0x18(%esp),%edx
 30050c4:	8b 6c 24 1c          	mov    0x1c(%esp),%ebp
 30050c8:	39 d3                	cmp    %edx,%ebx
 30050ca:	76 24                	jbe    30050f0 <memmove+0x38>
 30050cc:	8d 04 2a             	lea    (%edx,%ebp,1),%eax
 30050cf:	39 c3                	cmp    %eax,%ebx
 30050d1:	73 1d                	jae    30050f0 <memmove+0x38>
 30050d3:	8d 45 ff             	lea    -0x1(%ebp),%eax
 30050d6:	85 ed                	test   %ebp,%ebp
 30050d8:	74 0e                	je     30050e8 <memmove+0x30>
 30050da:	66 90                	xchg   %ax,%ax
 30050dc:	8a 0c 02             	mov    (%edx,%eax,1),%cl
 30050df:	88 0c 03             	mov    %cl,(%ebx,%eax,1)
 30050e2:	48                   	dec    %eax
 30050e3:	83 f8 ff             	cmp    $0xffffffff,%eax
 30050e6:	75 f4                	jne    30050dc <memmove+0x24>
 30050e8:	89 d8                	mov    %ebx,%eax
 30050ea:	5b                   	pop    %ebx
 30050eb:	5e                   	pop    %esi
 30050ec:	5f                   	pop    %edi
 30050ed:	5d                   	pop    %ebp
 30050ee:	c3                   	ret    
 30050ef:	90                   	nop
 30050f0:	83 fd 0f             	cmp    $0xf,%ebp
 30050f3:	77 1f                	ja     3005114 <memmove+0x5c>
 30050f5:	89 d8                	mov    %ebx,%eax
 30050f7:	8d 4d ff             	lea    -0x1(%ebp),%ecx
 30050fa:	85 ed                	test   %ebp,%ebp
 30050fc:	74 ea                	je     30050e8 <memmove+0x30>
 30050fe:	8d 4c 08 01          	lea    0x1(%eax,%ecx,1),%ecx
 3005102:	89 c7                	mov    %eax,%edi
 3005104:	89 d6                	mov    %edx,%esi
 3005106:	66 90                	xchg   %ax,%ax
 3005108:	a4                   	movsb  %ds:(%esi),%es:(%edi)
 3005109:	39 cf                	cmp    %ecx,%edi
 300510b:	75 fb                	jne    3005108 <memmove+0x50>
 300510d:	89 d8                	mov    %ebx,%eax
 300510f:	5b                   	pop    %ebx
 3005110:	5e                   	pop    %esi
 3005111:	5f                   	pop    %edi
 3005112:	5d                   	pop    %ebp
 3005113:	c3                   	ret    
 3005114:	89 d0                	mov    %edx,%eax
 3005116:	09 d8                	or     %ebx,%eax
 3005118:	a8 03                	test   $0x3,%al
 300511a:	75 6c                	jne    3005188 <memmove+0xd0>
 300511c:	8d 45 f0             	lea    -0x10(%ebp),%eax
 300511f:	83 e0 f0             	and    $0xfffffff0,%eax
 3005122:	8d 70 10             	lea    0x10(%eax),%esi
 3005125:	8d 7c 03 10          	lea    0x10(%ebx,%eax,1),%edi
 3005129:	89 d1                	mov    %edx,%ecx
 300512b:	89 d8                	mov    %ebx,%eax
 300512d:	89 54 24 18          	mov    %edx,0x18(%esp)
 3005131:	8d 76 00             	lea    0x0(%esi),%esi
 3005134:	8b 11                	mov    (%ecx),%edx
 3005136:	89 10                	mov    %edx,(%eax)
 3005138:	8b 51 04             	mov    0x4(%ecx),%edx
 300513b:	89 50 04             	mov    %edx,0x4(%eax)
 300513e:	8b 51 08             	mov    0x8(%ecx),%edx
 3005141:	89 50 08             	mov    %edx,0x8(%eax)
 3005144:	83 c1 10             	add    $0x10,%ecx
 3005147:	83 c0 10             	add    $0x10,%eax
 300514a:	8b 51 fc             	mov    -0x4(%ecx),%edx
 300514d:	89 50 fc             	mov    %edx,-0x4(%eax)
 3005150:	39 c7                	cmp    %eax,%edi
 3005152:	75 e0                	jne    3005134 <memmove+0x7c>
 3005154:	8b 54 24 18          	mov    0x18(%esp),%edx
 3005158:	01 d6                	add    %edx,%esi
 300515a:	89 e9                	mov    %ebp,%ecx
 300515c:	83 e1 0f             	and    $0xf,%ecx
 300515f:	f7 c5 0c 00 00 00    	test   $0xc,%ebp
 3005165:	74 2b                	je     3005192 <memmove+0xda>
 3005167:	83 e9 04             	sub    $0x4,%ecx
 300516a:	c1 e9 02             	shr    $0x2,%ecx
 300516d:	8d 0c 8d 04 00 00 00 	lea    0x4(,%ecx,4),%ecx
 3005174:	8d 14 0e             	lea    (%esi,%ecx,1),%edx
 3005177:	89 c7                	mov    %eax,%edi
 3005179:	a5                   	movsl  %ds:(%esi),%es:(%edi)
 300517a:	39 d6                	cmp    %edx,%esi
 300517c:	75 fb                	jne    3005179 <memmove+0xc1>
 300517e:	83 e5 03             	and    $0x3,%ebp
 3005181:	01 c8                	add    %ecx,%eax
 3005183:	e9 6f ff ff ff       	jmp    30050f7 <memmove+0x3f>
 3005188:	8d 4d ff             	lea    -0x1(%ebp),%ecx
 300518b:	89 d8                	mov    %ebx,%eax
 300518d:	e9 6c ff ff ff       	jmp    30050fe <memmove+0x46>
 3005192:	89 f2                	mov    %esi,%edx
 3005194:	89 cd                	mov    %ecx,%ebp
 3005196:	e9 5c ff ff ff       	jmp    30050f7 <memmove+0x3f>
 300519b:	90                   	nop

0300519c <memcpy>:
 300519c:	55                   	push   %ebp
 300519d:	57                   	push   %edi
 300519e:	56                   	push   %esi
 300519f:	53                   	push   %ebx
 30051a0:	8b 44 24 14          	mov    0x14(%esp),%eax
 30051a4:	8b 4c 24 18          	mov    0x18(%esp),%ecx
 30051a8:	8b 6c 24 1c          	mov    0x1c(%esp),%ebp
 30051ac:	83 fd 0f             	cmp    $0xf,%ebp
 30051af:	76 7f                	jbe    3005230 <memcpy+0x94>
 30051b1:	89 ca                	mov    %ecx,%edx
 30051b3:	09 c2                	or     %eax,%edx
 30051b5:	83 e2 03             	and    $0x3,%edx
 30051b8:	0f 85 92 00 00 00    	jne    3005250 <memcpy+0xb4>
 30051be:	8d 55 f0             	lea    -0x10(%ebp),%edx
 30051c1:	83 e2 f0             	and    $0xfffffff0,%edx
 30051c4:	8d 72 10             	lea    0x10(%edx),%esi
 30051c7:	8d 7c 10 10          	lea    0x10(%eax,%edx,1),%edi
 30051cb:	89 cb                	mov    %ecx,%ebx
 30051cd:	89 c2                	mov    %eax,%edx
 30051cf:	89 44 24 14          	mov    %eax,0x14(%esp)
 30051d3:	90                   	nop
 30051d4:	8b 03                	mov    (%ebx),%eax
 30051d6:	89 02                	mov    %eax,(%edx)
 30051d8:	8b 43 04             	mov    0x4(%ebx),%eax
 30051db:	89 42 04             	mov    %eax,0x4(%edx)
 30051de:	8b 43 08             	mov    0x8(%ebx),%eax
 30051e1:	89 42 08             	mov    %eax,0x8(%edx)
 30051e4:	83 c3 10             	add    $0x10,%ebx
 30051e7:	83 c2 10             	add    $0x10,%edx
 30051ea:	8b 43 fc             	mov    -0x4(%ebx),%eax
 30051ed:	89 42 fc             	mov    %eax,-0x4(%edx)
 30051f0:	39 d7                	cmp    %edx,%edi
 30051f2:	75 e0                	jne    30051d4 <memcpy+0x38>
 30051f4:	8b 44 24 14          	mov    0x14(%esp),%eax
 30051f8:	01 ce                	add    %ecx,%esi
 30051fa:	89 eb                	mov    %ebp,%ebx
 30051fc:	83 e3 0f             	and    $0xf,%ebx
 30051ff:	f7 c5 0c 00 00 00    	test   $0xc,%ebp
 3005205:	74 50                	je     3005257 <memcpy+0xbb>
 3005207:	83 eb 04             	sub    $0x4,%ebx
 300520a:	c1 eb 02             	shr    $0x2,%ebx
 300520d:	8d 1c 9d 04 00 00 00 	lea    0x4(,%ebx,4),%ebx
 3005214:	8d 0c 1e             	lea    (%esi,%ebx,1),%ecx
 3005217:	89 d7                	mov    %edx,%edi
 3005219:	a5                   	movsl  %ds:(%esi),%es:(%edi)
 300521a:	39 ce                	cmp    %ecx,%esi
 300521c:	75 fb                	jne    3005219 <memcpy+0x7d>
 300521e:	83 e5 03             	and    $0x3,%ebp
 3005221:	01 da                	add    %ebx,%edx
 3005223:	8d 5d ff             	lea    -0x1(%ebp),%ebx
 3005226:	85 ed                	test   %ebp,%ebp
 3005228:	75 0f                	jne    3005239 <memcpy+0x9d>
 300522a:	5b                   	pop    %ebx
 300522b:	5e                   	pop    %esi
 300522c:	5f                   	pop    %edi
 300522d:	5d                   	pop    %ebp
 300522e:	c3                   	ret    
 300522f:	90                   	nop
 3005230:	89 c2                	mov    %eax,%edx
 3005232:	8d 5d ff             	lea    -0x1(%ebp),%ebx
 3005235:	85 ed                	test   %ebp,%ebp
 3005237:	74 f1                	je     300522a <memcpy+0x8e>
 3005239:	8d 5c 1a 01          	lea    0x1(%edx,%ebx,1),%ebx
 300523d:	89 d7                	mov    %edx,%edi
 300523f:	89 ce                	mov    %ecx,%esi
 3005241:	8d 76 00             	lea    0x0(%esi),%esi
 3005244:	a4                   	movsb  %ds:(%esi),%es:(%edi)
 3005245:	39 fb                	cmp    %edi,%ebx
 3005247:	75 fb                	jne    3005244 <memcpy+0xa8>
 3005249:	5b                   	pop    %ebx
 300524a:	5e                   	pop    %esi
 300524b:	5f                   	pop    %edi
 300524c:	5d                   	pop    %ebp
 300524d:	c3                   	ret    
 300524e:	66 90                	xchg   %ax,%ax
 3005250:	8d 5d ff             	lea    -0x1(%ebp),%ebx
 3005253:	89 c2                	mov    %eax,%edx
 3005255:	eb e2                	jmp    3005239 <memcpy+0x9d>
 3005257:	89 f1                	mov    %esi,%ecx
 3005259:	89 dd                	mov    %ebx,%ebp
 300525b:	eb d5                	jmp    3005232 <memcpy+0x96>
 300525d:	66 90                	xchg   %ax,%ax
 300525f:	90                   	nop

03005260 <_fstat_r>:
 3005260:	83 ec 14             	sub    $0x14,%esp
 3005263:	c7 05 78 7d 00 03 00 	movl   $0x0,0x3007d78
 300526a:	00 00 00 
 300526d:	ff 74 24 20          	pushl  0x20(%esp)
 3005271:	ff 74 24 20          	pushl  0x20(%esp)
 3005275:	e8 be 02 00 00       	call   3005538 <_fstat>
 300527a:	83 c4 10             	add    $0x10,%esp
 300527d:	83 f8 ff             	cmp    $0xffffffff,%eax
 3005280:	74 06                	je     3005288 <_fstat_r+0x28>
 3005282:	83 c4 0c             	add    $0xc,%esp
 3005285:	c3                   	ret    
 3005286:	66 90                	xchg   %ax,%ax
 3005288:	8b 15 78 7d 00 03    	mov    0x3007d78,%edx
 300528e:	85 d2                	test   %edx,%edx
 3005290:	74 f0                	je     3005282 <_fstat_r+0x22>
 3005292:	8b 4c 24 10          	mov    0x10(%esp),%ecx
 3005296:	89 11                	mov    %edx,(%ecx)
 3005298:	83 c4 0c             	add    $0xc,%esp
 300529b:	c3                   	ret    

0300529c <_close_r>:
 300529c:	83 ec 18             	sub    $0x18,%esp
 300529f:	c7 05 78 7d 00 03 00 	movl   $0x0,0x3007d78
 30052a6:	00 00 00 
 30052a9:	ff 74 24 20          	pushl  0x20(%esp)
 30052ad:	e8 3e 02 00 00       	call   30054f0 <_close>
 30052b2:	83 c4 10             	add    $0x10,%esp
 30052b5:	83 f8 ff             	cmp    $0xffffffff,%eax
 30052b8:	74 06                	je     30052c0 <_close_r+0x24>
 30052ba:	83 c4 0c             	add    $0xc,%esp
 30052bd:	c3                   	ret    
 30052be:	66 90                	xchg   %ax,%ax
 30052c0:	8b 15 78 7d 00 03    	mov    0x3007d78,%edx
 30052c6:	85 d2                	test   %edx,%edx
 30052c8:	74 f0                	je     30052ba <_close_r+0x1e>
 30052ca:	8b 4c 24 10          	mov    0x10(%esp),%ecx
 30052ce:	89 11                	mov    %edx,(%ecx)
 30052d0:	83 c4 0c             	add    $0xc,%esp
 30052d3:	c3                   	ret    

030052d4 <_lseek_r>:
 30052d4:	83 ec 10             	sub    $0x10,%esp
 30052d7:	c7 05 78 7d 00 03 00 	movl   $0x0,0x3007d78
 30052de:	00 00 00 
 30052e1:	ff 74 24 20          	pushl  0x20(%esp)
 30052e5:	ff 74 24 20          	pushl  0x20(%esp)
 30052e9:	ff 74 24 20          	pushl  0x20(%esp)
 30052ed:	e8 12 02 00 00       	call   3005504 <_lseek>
 30052f2:	83 c4 10             	add    $0x10,%esp
 30052f5:	83 f8 ff             	cmp    $0xffffffff,%eax
 30052f8:	74 06                	je     3005300 <_lseek_r+0x2c>
 30052fa:	83 c4 0c             	add    $0xc,%esp
 30052fd:	c3                   	ret    
 30052fe:	66 90                	xchg   %ax,%ax
 3005300:	8b 15 78 7d 00 03    	mov    0x3007d78,%edx
 3005306:	85 d2                	test   %edx,%edx
 3005308:	74 f0                	je     30052fa <_lseek_r+0x26>
 300530a:	8b 4c 24 10          	mov    0x10(%esp),%ecx
 300530e:	89 11                	mov    %edx,(%ecx)
 3005310:	83 c4 0c             	add    $0xc,%esp
 3005313:	c3                   	ret    

03005314 <_write_r>:
 3005314:	83 ec 10             	sub    $0x10,%esp
 3005317:	c7 05 78 7d 00 03 00 	movl   $0x0,0x3007d78
 300531e:	00 00 00 
 3005321:	ff 74 24 20          	pushl  0x20(%esp)
 3005325:	ff 74 24 20          	pushl  0x20(%esp)
 3005329:	ff 74 24 20          	pushl  0x20(%esp)
 300532d:	e8 5e 01 00 00       	call   3005490 <_write>
 3005332:	83 c4 10             	add    $0x10,%esp
 3005335:	83 f8 ff             	cmp    $0xffffffff,%eax
 3005338:	74 06                	je     3005340 <_write_r+0x2c>
 300533a:	83 c4 0c             	add    $0xc,%esp
 300533d:	c3                   	ret    
 300533e:	66 90                	xchg   %ax,%ax
 3005340:	8b 15 78 7d 00 03    	mov    0x3007d78,%edx
 3005346:	85 d2                	test   %edx,%edx
 3005348:	74 f0                	je     300533a <_write_r+0x26>
 300534a:	8b 4c 24 10          	mov    0x10(%esp),%ecx
 300534e:	89 11                	mov    %edx,(%ecx)
 3005350:	83 c4 0c             	add    $0xc,%esp
 3005353:	c3                   	ret    

03005354 <_read_r>:
 3005354:	83 ec 10             	sub    $0x10,%esp
 3005357:	c7 05 78 7d 00 03 00 	movl   $0x0,0x3007d78
 300535e:	00 00 00 
 3005361:	ff 74 24 20          	pushl  0x20(%esp)
 3005365:	ff 74 24 20          	pushl  0x20(%esp)
 3005369:	ff 74 24 20          	pushl  0x20(%esp)
 300536d:	e8 66 01 00 00       	call   30054d8 <_read>
 3005372:	83 c4 10             	add    $0x10,%esp
 3005375:	83 f8 ff             	cmp    $0xffffffff,%eax
 3005378:	74 06                	je     3005380 <_read_r+0x2c>
 300537a:	83 c4 0c             	add    $0xc,%esp
 300537d:	c3                   	ret    
 300537e:	66 90                	xchg   %ax,%ax
 3005380:	8b 15 78 7d 00 03    	mov    0x3007d78,%edx
 3005386:	85 d2                	test   %edx,%edx
 3005388:	74 f0                	je     300537a <_read_r+0x26>
 300538a:	8b 4c 24 10          	mov    0x10(%esp),%ecx
 300538e:	89 11                	mov    %edx,(%ecx)
 3005390:	83 c4 0c             	add    $0xc,%esp
 3005393:	c3                   	ret    

03005394 <_isatty_r>:
 3005394:	83 ec 18             	sub    $0x18,%esp
 3005397:	c7 05 78 7d 00 03 00 	movl   $0x0,0x3007d78
 300539e:	00 00 00 
 30053a1:	ff 74 24 20          	pushl  0x20(%esp)
 30053a5:	e8 22 00 00 00       	call   30053cc <_isatty>
 30053aa:	83 c4 10             	add    $0x10,%esp
 30053ad:	83 f8 ff             	cmp    $0xffffffff,%eax
 30053b0:	74 06                	je     30053b8 <_isatty_r+0x24>
 30053b2:	83 c4 0c             	add    $0xc,%esp
 30053b5:	c3                   	ret    
 30053b6:	66 90                	xchg   %ax,%ax
 30053b8:	8b 15 78 7d 00 03    	mov    0x3007d78,%edx
 30053be:	85 d2                	test   %edx,%edx
 30053c0:	74 f0                	je     30053b2 <_isatty_r+0x1e>
 30053c2:	8b 4c 24 10          	mov    0x10(%esp),%ecx
 30053c6:	89 11                	mov    %edx,(%ecx)
 30053c8:	83 c4 0c             	add    $0xc,%esp
 30053cb:	c3                   	ret    

030053cc <_isatty>:
 30053cc:	83 ec 54             	sub    $0x54,%esp
 30053cf:	8d 44 24 0c          	lea    0xc(%esp),%eax
 30053d3:	50                   	push   %eax
 30053d4:	ff 74 24 5c          	pushl  0x5c(%esp)
 30053d8:	e8 57 00 00 00       	call   3005434 <fstat>
 30053dd:	83 c4 10             	add    $0x10,%esp
 30053e0:	85 c0                	test   %eax,%eax
 30053e2:	78 30                	js     3005414 <_isatty+0x48>
 30053e4:	8b 44 24 08          	mov    0x8(%esp),%eax
 30053e8:	25 00 f0 00 00       	and    $0xf000,%eax
 30053ed:	3d 00 20 00 00       	cmp    $0x2000,%eax
 30053f2:	74 14                	je     3005408 <_isatty+0x3c>
 30053f4:	e8 2f 00 00 00       	call   3005428 <__errno>
 30053f9:	c7 00 19 00 00 00    	movl   $0x19,(%eax)
 30053ff:	31 c0                	xor    %eax,%eax
 3005401:	83 c4 4c             	add    $0x4c,%esp
 3005404:	c3                   	ret    
 3005405:	8d 76 00             	lea    0x0(%esi),%esi
 3005408:	b8 01 00 00 00       	mov    $0x1,%eax
 300540d:	83 c4 4c             	add    $0x4c,%esp
 3005410:	c3                   	ret    
 3005411:	8d 76 00             	lea    0x0(%esi),%esi
 3005414:	e8 0f 00 00 00       	call   3005428 <__errno>
 3005419:	c7 00 09 00 00 00    	movl   $0x9,(%eax)
 300541f:	31 c0                	xor    %eax,%eax
 3005421:	83 c4 4c             	add    $0x4c,%esp
 3005424:	c3                   	ret    
 3005425:	66 90                	xchg   %ax,%ax
 3005427:	90                   	nop

03005428 <__errno>:
 3005428:	83 ec 0c             	sub    $0xc,%esp
 300542b:	e8 3c bd ff ff       	call   300116c <__getreent>
 3005430:	83 c4 0c             	add    $0xc,%esp
 3005433:	c3                   	ret    

03005434 <fstat>:
 3005434:	83 ec 0c             	sub    $0xc,%esp
 3005437:	e8 30 bd ff ff       	call   300116c <__getreent>
 300543c:	52                   	push   %edx
 300543d:	ff 74 24 18          	pushl  0x18(%esp)
 3005441:	ff 74 24 18          	pushl  0x18(%esp)
 3005445:	50                   	push   %eax
 3005446:	e8 15 fe ff ff       	call   3005260 <_fstat_r>
 300544b:	83 c4 1c             	add    $0x1c,%esp
 300544e:	c3                   	ret    
 300544f:	90                   	nop

03005450 <_syscall_>:
 3005450:	53                   	push   %ebx
 3005451:	8b 44 24 08          	mov    0x8(%esp),%eax
 3005455:	8b 5c 24 0c          	mov    0xc(%esp),%ebx
 3005459:	8b 4c 24 10          	mov    0x10(%esp),%ecx
 300545d:	8b 54 24 14          	mov    0x14(%esp),%edx
 3005461:	cd 80                	int    $0x80
 3005463:	5b                   	pop    %ebx
 3005464:	c3                   	ret    
 3005465:	8d 76 00             	lea    0x0(%esi),%esi

03005468 <_exit>:
 3005468:	53                   	push   %ebx
 3005469:	31 c0                	xor    %eax,%eax
 300546b:	8b 5c 24 08          	mov    0x8(%esp),%ebx
 300546f:	31 c9                	xor    %ecx,%ecx
 3005471:	31 d2                	xor    %edx,%edx
 3005473:	cd 80                	int    $0x80
 3005475:	eb fe                	jmp    3005475 <_exit+0xd>
 3005477:	90                   	nop

03005478 <_open>:
 3005478:	53                   	push   %ebx
 3005479:	b8 02 00 00 00       	mov    $0x2,%eax
 300547e:	8b 5c 24 08          	mov    0x8(%esp),%ebx
 3005482:	8b 4c 24 0c          	mov    0xc(%esp),%ecx
 3005486:	8b 54 24 10          	mov    0x10(%esp),%edx
 300548a:	cd 80                	int    $0x80
 300548c:	5b                   	pop    %ebx
 300548d:	c3                   	ret    
 300548e:	66 90                	xchg   %ax,%ax

03005490 <_write>:
 3005490:	53                   	push   %ebx
 3005491:	b8 04 00 00 00       	mov    $0x4,%eax
 3005496:	8b 5c 24 08          	mov    0x8(%esp),%ebx
 300549a:	8b 4c 24 0c          	mov    0xc(%esp),%ecx
 300549e:	8b 54 24 10          	mov    0x10(%esp),%edx
 30054a2:	cd 80                	int    $0x80
 30054a4:	5b                   	pop    %ebx
 30054a5:	c3                   	ret    
 30054a6:	66 90                	xchg   %ax,%ax

030054a8 <_sbrk>:
 30054a8:	56                   	push   %esi
 30054a9:	53                   	push   %ebx
 30054aa:	8b 35 24 7d 00 03    	mov    0x3007d24,%esi
 30054b0:	8b 5c 24 0c          	mov    0xc(%esp),%ebx
 30054b4:	01 f3                	add    %esi,%ebx
 30054b6:	b8 09 00 00 00       	mov    $0x9,%eax
 30054bb:	31 c9                	xor    %ecx,%ecx
 30054bd:	31 d2                	xor    %edx,%edx
 30054bf:	cd 80                	int    $0x80
 30054c1:	85 c0                	test   %eax,%eax
 30054c3:	75 0b                	jne    30054d0 <_sbrk+0x28>
 30054c5:	89 1d 24 7d 00 03    	mov    %ebx,0x3007d24
 30054cb:	89 f0                	mov    %esi,%eax
 30054cd:	5b                   	pop    %ebx
 30054ce:	5e                   	pop    %esi
 30054cf:	c3                   	ret    
 30054d0:	b8 ff ff ff ff       	mov    $0xffffffff,%eax
 30054d5:	5b                   	pop    %ebx
 30054d6:	5e                   	pop    %esi
 30054d7:	c3                   	ret    

030054d8 <_read>:
 30054d8:	53                   	push   %ebx
 30054d9:	b8 03 00 00 00       	mov    $0x3,%eax
 30054de:	8b 5c 24 08          	mov    0x8(%esp),%ebx
 30054e2:	8b 4c 24 0c          	mov    0xc(%esp),%ecx
 30054e6:	8b 54 24 10          	mov    0x10(%esp),%edx
 30054ea:	cd 80                	int    $0x80
 30054ec:	5b                   	pop    %ebx
 30054ed:	c3                   	ret    
 30054ee:	66 90                	xchg   %ax,%ax

030054f0 <_close>:
 30054f0:	53                   	push   %ebx
 30054f1:	b8 07 00 00 00       	mov    $0x7,%eax
 30054f6:	8b 5c 24 08          	mov    0x8(%esp),%ebx
 30054fa:	31 c9                	xor    %ecx,%ecx
 30054fc:	31 d2                	xor    %edx,%edx
 30054fe:	cd 80                	int    $0x80
 3005500:	5b                   	pop    %ebx
 3005501:	c3                   	ret    
 3005502:	66 90                	xchg   %ax,%ax

03005504 <_lseek>:
 3005504:	53                   	push   %ebx
 3005505:	b8 08 00 00 00       	mov    $0x8,%eax
 300550a:	8b 5c 24 08          	mov    0x8(%esp),%ebx
 300550e:	8b 4c 24 0c          	mov    0xc(%esp),%ecx
 3005512:	8b 54 24 10          	mov    0x10(%esp),%edx
 3005516:	cd 80                	int    $0x80
 3005518:	5b                   	pop    %ebx
 3005519:	c3                   	ret    
 300551a:	66 90                	xchg   %ax,%ax

0300551c <_gettimeofday>:
 300551c:	53                   	push   %ebx
 300551d:	b8 13 00 00 00       	mov    $0x13,%eax
 3005522:	8b 5c 24 08          	mov    0x8(%esp),%ebx
 3005526:	8b 4c 24 0c          	mov    0xc(%esp),%ecx
 300552a:	31 d2                	xor    %edx,%edx
 300552c:	cd 80                	int    $0x80
 300552e:	5b                   	pop    %ebx
 300552f:	c3                   	ret    

03005530 <_execve>:
 3005530:	6a 0d                	push   $0xd
 3005532:	e8 31 ff ff ff       	call   3005468 <_exit>
 3005537:	90                   	nop

03005538 <_fstat>:
 3005538:	b8 ff ff ff ff       	mov    $0xffffffff,%eax
 300553d:	c3                   	ret    
 300553e:	66 90                	xchg   %ax,%ax

03005540 <_stat>:
 3005540:	83 ec 0c             	sub    $0xc,%esp
 3005543:	68 20 60 00 03       	push   $0x3006020
 3005548:	68 88 64 00 03       	push   $0x3006488
 300554d:	6a 74                	push   $0x74
 300554f:	68 f4 63 00 03       	push   $0x30063f4
 3005554:	e8 7b bb ff ff       	call   30010d4 <__assert_func>
 3005559:	8d 76 00             	lea    0x0(%esi),%esi

0300555c <_kill>:
 300555c:	6a fb                	push   $0xfffffffb
 300555e:	e8 05 ff ff ff       	call   3005468 <_exit>
 3005563:	90                   	nop

03005564 <_getpid>:
 3005564:	6a fa                	push   $0xfffffffa
 3005566:	e8 fd fe ff ff       	call   3005468 <_exit>
 300556b:	90                   	nop

0300556c <_fork>:
 300556c:	83 ec 0c             	sub    $0xc,%esp
 300556f:	68 20 60 00 03       	push   $0x3006020
 3005574:	68 80 64 00 03       	push   $0x3006480
 3005579:	68 83 00 00 00       	push   $0x83
 300557e:	68 f4 63 00 03       	push   $0x30063f4
 3005583:	e8 4c bb ff ff       	call   30010d4 <__assert_func>

03005588 <vfork>:
 3005588:	83 ec 0c             	sub    $0xc,%esp
 300558b:	68 20 60 00 03       	push   $0x3006020
 3005590:	68 78 64 00 03       	push   $0x3006478
 3005595:	68 88 00 00 00       	push   $0x88
 300559a:	68 f4 63 00 03       	push   $0x30063f4
 300559f:	e8 30 bb ff ff       	call   30010d4 <__assert_func>

030055a4 <_link>:
 30055a4:	83 ec 0c             	sub    $0xc,%esp
 30055a7:	68 20 60 00 03       	push   $0x3006020
 30055ac:	68 70 64 00 03       	push   $0x3006470
 30055b1:	68 8d 00 00 00       	push   $0x8d
 30055b6:	68 f4 63 00 03       	push   $0x30063f4
 30055bb:	e8 14 bb ff ff       	call   30010d4 <__assert_func>

030055c0 <_unlink>:
 30055c0:	83 ec 0c             	sub    $0xc,%esp
 30055c3:	68 20 60 00 03       	push   $0x3006020
 30055c8:	68 68 64 00 03       	push   $0x3006468
 30055cd:	68 92 00 00 00       	push   $0x92
 30055d2:	68 f4 63 00 03       	push   $0x30063f4
 30055d7:	e8 f8 ba ff ff       	call   30010d4 <__assert_func>

030055dc <_wait>:
 30055dc:	83 ec 0c             	sub    $0xc,%esp
 30055df:	68 20 60 00 03       	push   $0x3006020
 30055e4:	68 60 64 00 03       	push   $0x3006460
 30055e9:	68 97 00 00 00       	push   $0x97
 30055ee:	68 f4 63 00 03       	push   $0x30063f4
 30055f3:	e8 dc ba ff ff       	call   30010d4 <__assert_func>

030055f8 <_times>:
 30055f8:	83 ec 0c             	sub    $0xc,%esp
 30055fb:	68 20 60 00 03       	push   $0x3006020
 3005600:	68 58 64 00 03       	push   $0x3006458
 3005605:	68 9c 00 00 00       	push   $0x9c
 300560a:	68 f4 63 00 03       	push   $0x30063f4
 300560f:	e8 c0 ba ff ff       	call   30010d4 <__assert_func>

03005614 <pipe>:
 3005614:	83 ec 0c             	sub    $0xc,%esp
 3005617:	68 20 60 00 03       	push   $0x3006020
 300561c:	68 50 64 00 03       	push   $0x3006450
 3005621:	68 a1 00 00 00       	push   $0xa1
 3005626:	68 f4 63 00 03       	push   $0x30063f4
 300562b:	e8 a4 ba ff ff       	call   30010d4 <__assert_func>

03005630 <dup>:
 3005630:	83 ec 0c             	sub    $0xc,%esp
 3005633:	68 20 60 00 03       	push   $0x3006020
 3005638:	68 4c 64 00 03       	push   $0x300644c
 300563d:	68 a6 00 00 00       	push   $0xa6
 3005642:	68 f4 63 00 03       	push   $0x30063f4
 3005647:	e8 88 ba ff ff       	call   30010d4 <__assert_func>

0300564c <dup2>:
 300564c:	b8 ff ff ff ff       	mov    $0xffffffff,%eax
 3005651:	c3                   	ret    
 3005652:	66 90                	xchg   %ax,%ax

03005654 <sleep>:
 3005654:	83 ec 0c             	sub    $0xc,%esp
 3005657:	68 20 60 00 03       	push   $0x3006020
 300565c:	68 44 64 00 03       	push   $0x3006444
 3005661:	68 af 00 00 00       	push   $0xaf
 3005666:	68 f4 63 00 03       	push   $0x30063f4
 300566b:	e8 64 ba ff ff       	call   30010d4 <__assert_func>

03005670 <readlink>:
 3005670:	83 ec 0c             	sub    $0xc,%esp
 3005673:	68 20 60 00 03       	push   $0x3006020
 3005678:	68 38 64 00 03       	push   $0x3006438
 300567d:	68 b4 00 00 00       	push   $0xb4
 3005682:	68 f4 63 00 03       	push   $0x30063f4
 3005687:	e8 48 ba ff ff       	call   30010d4 <__assert_func>

0300568c <symlink>:
 300568c:	83 ec 0c             	sub    $0xc,%esp
 300568f:	68 20 60 00 03       	push   $0x3006020
 3005694:	68 30 64 00 03       	push   $0x3006430
 3005699:	68 b9 00 00 00       	push   $0xb9
 300569e:	68 f4 63 00 03       	push   $0x30063f4
 30056a3:	e8 2c ba ff ff       	call   30010d4 <__assert_func>

030056a8 <ioctl>:
 30056a8:	b8 ff ff ff ff       	mov    $0xffffffff,%eax
 30056ad:	c3                   	ret    

030056ae <_start>:
 30056ae:	bd 00 00 00 00       	mov    $0x0,%ebp
 30056b3:	e8 00 00 00 00       	call   30056b8 <call_main>

030056b8 <call_main>:
 30056b8:	83 ec 1c             	sub    $0x1c,%esp
 30056bb:	c7 44 24 0c 00 00 00 	movl   $0x0,0xc(%esp)
 30056c2:	00 
 30056c3:	8d 44 24 0c          	lea    0xc(%esp),%eax
 30056c7:	a3 28 7d 00 03       	mov    %eax,0x3007d28
 30056cc:	52                   	push   %edx
 30056cd:	50                   	push   %eax
 30056ce:	50                   	push   %eax
 30056cf:	6a 00                	push   $0x0
 30056d1:	e8 2a b9 ff ff       	call   3001000 <main>
 30056d6:	89 04 24             	mov    %eax,(%esp)
 30056d9:	e8 02 00 00 00       	call   30056e0 <exit>
 30056de:	66 90                	xchg   %ax,%ax

030056e0 <exit>:
 30056e0:	53                   	push   %ebx
 30056e1:	83 ec 10             	sub    $0x10,%esp
 30056e4:	8b 5c 24 18          	mov    0x18(%esp),%ebx
 30056e8:	6a 00                	push   $0x0
 30056ea:	53                   	push   %ebx
 30056eb:	e8 24 00 00 00       	call   3005714 <__call_exitprocs>
 30056f0:	8b 15 f0 63 00 03    	mov    0x30063f0,%edx
 30056f6:	8b 42 3c             	mov    0x3c(%edx),%eax
 30056f9:	83 c4 10             	add    $0x10,%esp
 30056fc:	85 c0                	test   %eax,%eax
 30056fe:	74 09                	je     3005709 <exit+0x29>
 3005700:	83 ec 0c             	sub    $0xc,%esp
 3005703:	52                   	push   %edx
 3005704:	ff d0                	call   *%eax
 3005706:	83 c4 10             	add    $0x10,%esp
 3005709:	83 ec 0c             	sub    $0xc,%esp
 300570c:	53                   	push   %ebx
 300570d:	e8 56 fd ff ff       	call   3005468 <_exit>
 3005712:	66 90                	xchg   %ax,%ax

03005714 <__call_exitprocs>:
 3005714:	55                   	push   %ebp
 3005715:	57                   	push   %edi
 3005716:	56                   	push   %esi
 3005717:	53                   	push   %ebx
 3005718:	83 ec 0c             	sub    $0xc,%esp
 300571b:	8b 7c 24 24          	mov    0x24(%esp),%edi
 300571f:	a1 f0 63 00 03       	mov    0x30063f0,%eax
 3005724:	8b b0 48 01 00 00    	mov    0x148(%eax),%esi
 300572a:	85 f6                	test   %esi,%esi
 300572c:	0f 84 a6 00 00 00    	je     30057d8 <__call_exitprocs+0xc4>
 3005732:	8b 5e 04             	mov    0x4(%esi),%ebx
 3005735:	4b                   	dec    %ebx
 3005736:	79 12                	jns    300574a <__call_exitprocs+0x36>
 3005738:	e9 9b 00 00 00       	jmp    30057d8 <__call_exitprocs+0xc4>
 300573d:	8d 76 00             	lea    0x0(%esi),%esi
 3005740:	4b                   	dec    %ebx
 3005741:	83 fb ff             	cmp    $0xffffffff,%ebx
 3005744:	0f 84 8e 00 00 00    	je     30057d8 <__call_exitprocs+0xc4>
 300574a:	85 ff                	test   %edi,%edi
 300574c:	74 09                	je     3005757 <__call_exitprocs+0x43>
 300574e:	39 bc 9e 08 01 00 00 	cmp    %edi,0x108(%esi,%ebx,4)
 3005755:	75 e9                	jne    3005740 <__call_exitprocs+0x2c>
 3005757:	8b 44 9e 08          	mov    0x8(%esi,%ebx,4),%eax
 300575b:	8b 4e 04             	mov    0x4(%esi),%ecx
 300575e:	8d 51 ff             	lea    -0x1(%ecx),%edx
 3005761:	39 da                	cmp    %ebx,%edx
 3005763:	74 5f                	je     30057c4 <__call_exitprocs+0xb0>
 3005765:	c7 44 9e 08 00 00 00 	movl   $0x0,0x8(%esi,%ebx,4)
 300576c:	00 
 300576d:	85 c0                	test   %eax,%eax
 300576f:	74 cf                	je     3005740 <__call_exitprocs+0x2c>
 3005771:	8b 6e 04             	mov    0x4(%esi),%ebp
 3005774:	ba 01 00 00 00       	mov    $0x1,%edx
 3005779:	88 d9                	mov    %bl,%cl
 300577b:	d3 e2                	shl    %cl,%edx
 300577d:	85 96 88 01 00 00    	test   %edx,0x188(%esi)
 3005783:	75 1f                	jne    30057a4 <__call_exitprocs+0x90>
 3005785:	ff d0                	call   *%eax
 3005787:	a1 f0 63 00 03       	mov    0x30063f0,%eax
 300578c:	8b 80 48 01 00 00    	mov    0x148(%eax),%eax
 3005792:	39 6e 04             	cmp    %ebp,0x4(%esi)
 3005795:	75 04                	jne    300579b <__call_exitprocs+0x87>
 3005797:	39 c6                	cmp    %eax,%esi
 3005799:	74 a5                	je     3005740 <__call_exitprocs+0x2c>
 300579b:	85 c0                	test   %eax,%eax
 300579d:	74 39                	je     30057d8 <__call_exitprocs+0xc4>
 300579f:	89 c6                	mov    %eax,%esi
 30057a1:	eb 8f                	jmp    3005732 <__call_exitprocs+0x1e>
 30057a3:	90                   	nop
 30057a4:	8b 8c 9e 88 00 00 00 	mov    0x88(%esi,%ebx,4),%ecx
 30057ab:	85 96 8c 01 00 00    	test   %edx,0x18c(%esi)
 30057b1:	75 19                	jne    30057cc <__call_exitprocs+0xb8>
 30057b3:	83 ec 08             	sub    $0x8,%esp
 30057b6:	51                   	push   %ecx
 30057b7:	ff 74 24 2c          	pushl  0x2c(%esp)
 30057bb:	ff d0                	call   *%eax
 30057bd:	83 c4 10             	add    $0x10,%esp
 30057c0:	eb c5                	jmp    3005787 <__call_exitprocs+0x73>
 30057c2:	66 90                	xchg   %ax,%ax
 30057c4:	89 5e 04             	mov    %ebx,0x4(%esi)
 30057c7:	eb a4                	jmp    300576d <__call_exitprocs+0x59>
 30057c9:	8d 76 00             	lea    0x0(%esi),%esi
 30057cc:	83 ec 0c             	sub    $0xc,%esp
 30057cf:	51                   	push   %ecx
 30057d0:	ff d0                	call   *%eax
 30057d2:	83 c4 10             	add    $0x10,%esp
 30057d5:	eb b0                	jmp    3005787 <__call_exitprocs+0x73>
 30057d7:	90                   	nop
 30057d8:	83 c4 0c             	add    $0xc,%esp
 30057db:	5b                   	pop    %ebx
 30057dc:	5e                   	pop    %esi
 30057dd:	5f                   	pop    %edi
 30057de:	5d                   	pop    %ebp
 30057df:	c3                   	ret    
